(dp0
S'FROM_HIDDEN'
p1
(dp2
Vmhirthe
p3
S'@jab2victory'
p4
sVcbruen
p5
S'@julaybeeeeb'
p6
sVpoconner
p7
S'@Dawlat_Islam2'
p8
sVmbraun
p9
S'@FarisBritani'
p10
sVsgerlach
p11
S'@AbuHussain104'
p12
sVatorp
p13
S'@AbuDujanah'
p14
sVmhessel
p15
S'@4bu_Muhaj1r'
p16
sVedickens
p17
S'@AbuTalha001'
p18
sVnharvey
p19
S'@onthatpath3'
p20
sVsjenkins
p21
S'@AbooJihad2013'
p22
ssS'HIDDEN'
p23
(dp24
g18
(VElmo Dickens
p25
g17
tp26
sg6
(VCollin Bruen
p27
g5
tp28
sg8
(VPedro O'Conner
p29
g7
tp30
sg20
(VNelda Harvey
p31
g19
tp32
sg10
(VMallory Braun
p33
g9
tp34
sg12
(VSamson Gerlach
p35
g11
tp36
sg4
(VMelvina Hirthe
p37
g3
tp38
sg14
(VAylin Torp
p39
g13
tp40
sg22
(VStanton Jenkins
p41
g21
tp42
sg16
(VMaci Hessel
p43
g15
tp44
ssS'FAKENAME_FROM_NICKNAME'
p45
(dp46
g3
g37
sg5
g27
sg7
g29
sg9
g33
sg11
g35
sg13
g39
sg15
g43
sg17
g25
sg19
g31
sg21
g41
ss.