(lp0
(dp1
S'text'
p2
S'islamicstate'
p3
sS'size'
p4
F0.04282407407407408
sa(dp5
g2
S'ummah'
p6
sg4
F0.015046296296296295
sa(dp7
g2
S'muslims'
p8
sg4
F0.011188271604938271
sa(dp9
g2
S'iraq'
p10
sg4
F0.010802469135802469
sa(dp11
g2
S'allah'
p12
sg4
F0.010416666666666666
sa(dp13
g2
S'isis'
p14
sg4
F0.008487654320987654
sa(dp15
g2
S'ukmuslim'
p16
sg4
F0.008487654320987654
sa(dp17
g2
S'usa'
p18
sg4
F0.008101851851851851
sa(dp19
g2
S'amp'
p20
sg4
F0.006558641975308642
sa(dp21
g2
S'army'
p22
sg4
F0.005787037037037037
sa(dp23
g2
S'islamic'
p24
sg4
F0.005401234567901234
sa(dp25
g2
S'state'
p26
sg4
F0.005401234567901234
sa(dp27
g2
S'khilafah'
p28
sg4
F0.005015432098765432
sa(dp29
g2
S'brothers'
p30
sg4
F0.004629629629629629
sa(dp31
g2
S'killed'
p32
sg4
F0.004629629629629629
sa(dp33
g2
S'shia'
p34
sg4
F0.004629629629629629
sa(dp35
g2
S'syria'
p36
sg4
F0.004629629629629629
sa(dp37
g2
S'al'
p38
sg4
F0.004243827160493827
sa(dp39
g2
S'alfallujah'
p40
sg4
F0.004243827160493827
sa(dp41
g2
S'brigade'
p42
sg4
F0.004243827160493827
sa(dp43
g2
S'decimate'
p44
sg4
F0.0038580246913580245
sa(dp45
g2
S'muslim'
p46
sg4
F0.0038580246913580245
sa(dp47
g2
S'safavid'
p48
sg4
F0.0038580246913580245
sa(dp49
g2
S'shamiwitness'
p50
sg4
F0.0038580246913580245
sa(dp51
g2
S'wilayat'
p52
sg4
F0.0038580246913580245
sa(dp53
g2
S'4firdous'
p54
sg4
F0.003472222222222222
sa(dp55
g2
S'british'
p56
sg4
F0.003472222222222222
sa(dp57
g2
S'headquarters'
p58
sg4
F0.003472222222222222
sa(dp59
g2
S'pkk'
p60
sg4
F0.003472222222222222
sa(dp61
g2
S'dont'
p62
sg4
F0.0030864197530864196
sa(dp63
g2
S'islam'
p64
sg4
F0.0030864197530864196
sa(dp65
g2
S'kafir'
p66
sg4
F0.0030864197530864196
sa(dp67
g2
S'kuffr'
p68
sg4
F0.0030864197530864196
sa(dp69
g2
S'man'
p70
sg4
F0.0030864197530864196
sa(dp71
g2
S'arab'
p72
sg4
F0.002700617283950617
sa(dp73
g2
S'attacked'
p74
sg4
F0.002700617283950617
sa(dp75
g2
S'even'
p76
sg4
F0.002700617283950617
sa(dp77
g2
S'fight'
p78
sg4
F0.002700617283950617
sa(dp79
g2
S'hit'
p80
sg4
F0.002700617283950617
sa(dp81
g2
S'like'
p82
sg4
F0.002700617283950617
sa(dp83
g2
S'many'
p84
sg4
F0.002700617283950617
sa(dp85
g2
S'people'
p86
sg4
F0.002700617283950617
sa(dp87
g2
S'said'
p88
sg4
F0.002700617283950617
sa(dp89
g2
S'sothink'
p90
sg4
F0.002700617283950617
sa(dp91
g2
S'west'
p92
sg4
F0.002700617283950617
sa(dp93
g2
S'abu'
p94
sg4
F0.0023148148148148147
sa(dp95
g2
S'flag'
p96
sg4
F0.0023148148148148147
sa(dp97
g2
S'gaza'
p98
sg4
F0.0023148148148148147
sa(dp99
g2
S'israel'
p100
sg4
F0.0023148148148148147
sa(dp101
g2
S'join'
p102
sg4
F0.0023148148148148147
sa(dp103
g2
S'kill'
p104
sg4
F0.0023148148148148147
sa(dp105
g2
S'kobane'
p106
sg4
F0.0023148148148148147
sa(dp107
g2
S'today'
p108
sg4
F0.0023148148148148147
sa(dp109
g2
S'town'
p110
sg4
F0.0023148148148148147
sa(dp111
g2
S'upon'
p112
sg4
F0.0023148148148148147
sa(dp113
g2
S'war'
p114
sg4
F0.0023148148148148147
sa(dp115
g2
S'wilaayat'
p116
sg4
F0.0023148148148148147
sa(dp117
g2
S'akhi'
p118
sg4
F0.0019290123456790122
sa(dp119
g2
S'allegiance'
p120
sg4
F0.0019290123456790122
sa(dp121
g2
S'around'
p122
sg4
F0.0019290123456790122
sa(dp123
g2
S'attawbah'
p124
sg4
F0.0019290123456790122
sa(dp125
g2
S'children'
p126
sg4
F0.0019290123456790122
sa(dp127
g2
S'city'
p128
sg4
F0.0019290123456790122
sa(dp129
g2
S'civilians'
p130
sg4
F0.0019290123456790122
sa(dp131
g2
S'day'
p132
sg4
F0.0019290123456790122
sa(dp133
g2
S'hearts'
p134
sg4
F0.0019290123456790122
sa(dp135
g2
S'make'
p136
sg4
F0.0019290123456790122
sa(dp137
g2
S'martydom'
p138
sg4
F0.0019290123456790122
sa(dp139
g2
S'repentance'
p140
sg4
F0.0019290123456790122
sa(dp141
g2
S'soldiers'
p142
sg4
F0.0019290123456790122
sa(dp143
g2
S'surat'
p144
sg4
F0.0019290123456790122
sa(dp145
g2
S'take'
p146
sg4
F0.0019290123456790122
sa(dp147
g2
S'think'
p148
sg4
F0.0019290123456790122
sa(dp149
g2
S'ypg'
p150
sg4
F0.0019290123456790122
sa(dp151
g2
S'air'
p152
sg4
F0.0015432098765432098
sa(dp153
g2
S'airstrikes'
p154
sg4
F0.0015432098765432098
sa(dp155
g2
S'alhamdulillah'
p156
sg4
F0.0015432098765432098
sa(dp157
g2
S'assad'
p158
sg4
F0.0015432098765432098
sa(dp159
g2
S'ayn'
p160
sg4
F0.0015432098765432098
sa(dp161
g2
S'bakr'
p162
sg4
F0.0015432098765432098
sa(dp163
g2
S'bomb'
p164
sg4
F0.0015432098765432098
sa(dp165
g2
S'car'
p166
sg4
F0.0015432098765432098
sa(dp167
g2
S'come'
p168
sg4
F0.0015432098765432098
sa(dp169
g2
S'dua'
p170
sg4
F0.0015432098765432098
sa(dp171
g2
S'enemy'
p172
sg4
F0.0015432098765432098
sa(dp173
g2
S'fighting'
p174
sg4
F0.0015432098765432098
sa(dp175
g2
S'free'
p176
sg4
F0.0015432098765432098
sa(dp177
g2
S'get'
p178
sg4
F0.0015432098765432098
sa(dp179
g2
S'give'
p180
sg4
F0.0015432098765432098
sa(dp181
g2
S'hes'
p182
sg4
F0.0015432098765432098
sa(dp183
g2
S'honor'
p184
sg4
F0.0015432098765432098
sa(dp185
g2
S'jihad'
p186
sg4
F0.0015432098765432098
sa(dp187
g2
S'khilafa'
p188
sg4
F0.0015432098765432098
sa(dp189
g2
S'kobani'
p190
sg4
F0.0015432098765432098
sa(dp191
g2
S'leader'
p192
sg4
F0.0015432098765432098
sa(dp193
g2
S'life'
p194
sg4
F0.0015432098765432098
sa(dp195
g2
S'massacre'
p196
sg4
F0.0015432098765432098
sa(dp197
g2
S'messenger'
p198
sg4
F0.0015432098765432098
sa(dp199
g2
S'need'
p200
sg4
F0.0015432098765432098
sa(dp201
g2
S'never'
p202
sg4
F0.0015432098765432098
sa(dp203
g2
S'new'
p204
sg4
F0.0015432098765432098
sa(dp205
g2
S'nonmuslims'
p206
sg4
F0.0015432098765432098
sa(dp207
g2
S'please'
p208
sg4
F0.0015432098765432098
sa(dp209
g2
S'province'
p210
sg4
F0.0015432098765432098
sa(dp211
g2
S'say'
p212
sg4
F0.0015432098765432098
sa(dp213
g2
S'see'
p214
sg4
F0.0015432098765432098
sa(dp215
g2
S'sisters'
p216
sg4
F0.0015432098765432098
sa(dp217
g2
S'strike'
p218
sg4
F0.0015432098765432098
sa(dp219
g2
S'tawheed'
p220
sg4
F0.0015432098765432098
sa(dp221
g2
S'troops'
p222
sg4
F0.0015432098765432098
sa(dp223
g2
S'truth'
p224
sg4
F0.0015432098765432098
sa(dp225
g2
S'ahrar'
p226
sg4
F0.0011574074074074073
sa(dp227
g2
S'alarab'
p228
sg4
F0.0011574074074074073
sa(dp229
g2
S'albab'
p230
sg4
F0.0011574074074074073
sa(dp231
g2
S'aleppo'
p232
sg4
F0.0011574074074074073
sa(dp233
g2
S'alwalawalbara'
p234
sg4
F0.0011574074074074073
sa(dp235
g2
S'anbar'
p236
sg4
F0.0011574074074074073
sa(dp237
g2
S'angels'
p238
sg4
F0.0011574074074074073
sa(dp239
g2
S'arabs'
p240
sg4
F0.0011574074074074073
sa(dp241
g2
S'baghdad'
p242
sg4
F0.0011574074074074073
sa(dp243
g2
S'brother'
p244
sg4
F0.0011574074074074073
sa(dp245
g2
S'camp'
p246
sg4
F0.0011574074074074073
sa(dp247
g2
S'captured'
p248
sg4
F0.0011574074074074073
sa(dp249
g2
S'catch'
p250
sg4
F0.0011574074074074073
sa(dp251
g2
S'clear'
p252
sg4
F0.0011574074074074073
sa(dp253
g2
S'defeat'
p254
sg4
F0.0011574074074074073
sa(dp255
g2
S'disbelievers'
p256
sg4
F0.0011574074074074073
sa(dp257
g2
S'drone'
p258
sg4
F0.0011574074074074073
sa(dp259
g2
S'drones'
p260
sg4
F0.0011574074074074073
sa(dp261
g2
S'forces'
p262
sg4
F0.0011574074074074073
sa(dp263
g2
S'forget'
p264
sg4
F0.0011574074074074073
sa(dp265
g2
S'go'
p266
sg4
F0.0011574074074074073
sa(dp267
g2
S'got'
p268
sg4
F0.0011574074074074073
sa(dp269
g2
S'group'
p270
sg4
F0.0011574074074074073
sa(dp271
g2
S'h'
p272
sg4
F0.0011574074074074073
sa(dp273
g2
S'highest'
p274
sg4
F0.0011574074074074073
sa(dp275
g2
S'iraqi'
p276
sg4
F0.0011574074074074073
sa(dp277
g2
S'jn'
p278
sg4
F0.0011574074074074073
sa(dp279
g2
S'jordan'
p280
sg4
F0.0011574074074074073
sa(dp281
g2
S'kurdish'
p282
sg4
F0.0011574074074074073
sa(dp283
g2
S'let'
p284
sg4
F0.0011574074074074073
sa(dp285
g2
S'lets'
p286
sg4
F0.0011574074074074073
sa(dp287
g2
S'look'
p288
sg4
F0.0011574074074074073
sa(dp289
g2
S'media'
p290
sg4
F0.0011574074074074073
sa(dp291
g2
S'muhammad'
p292
sg4
F0.0011574074074074073
sa(dp293
g2
S'muhammed'
p294
sg4
F0.0011574074074074073
sa(dp295
g2
S'mujahideen'
p296
sg4
F0.0011574074074074073
sa(dp297
g2
S'oh'
p298
sg4
F0.0011574074074074073
sa(dp299
g2
S'pay'
p300
sg4
F0.0011574074074074073
sa(dp301
g2
S'peshmerga'
p302
sg4
F0.0011574074074074073
sa(dp303
g2
S'police'
p304
sg4
F0.0011574074074074073
sa(dp305
g2
S'raids'
p306
sg4
F0.0011574074074074073
sa(dp307
g2
S'religion'
p308
sg4
F0.0011574074074074073
sa(dp309
g2
S'reports'
p310
sg4
F0.0011574074074074073
sa(dp311
g2
S'rtawheed1'
p312
sg4
F0.0011574074074074073
sa(dp313
g2
S'says'
p314
sg4
F0.0011574074074074073
sa(dp315
g2
S'set'
p316
sg4
F0.0011574074074074073
sa(dp317
g2
S'shot'
p318
sg4
F0.0011574074074074073
sa(dp319
g2
S'still'
p320
sg4
F0.0011574074074074073
sa(dp321
g2
S'strikes'
p322
sg4
F0.0011574074074074073
sa(dp323
g2
S'supporters'
p324
sg4
F0.0011574074074074073
sa(dp325
g2
S'syrian'
p326
sg4
F0.0011574074074074073
sa(dp327
g2
S'taken'
p328
sg4
F0.0011574074074074073
sa(dp329
g2
S'uk'
p330
sg4
F0.0011574074074074073
sa(dp331
g2
S'ummata'
p332
sg4
F0.0011574074074074073
sa(dp333
g2
S'using'
p334
sg4
F0.0011574074074074073
sa(dp335
g2
S'video'
p336
sg4
F0.0011574074074074073
sa(dp337
g2
S'waiting'
p338
sg4
F0.0011574074074074073
sa(dp339
g2
S'watchyourbackusa'
p340
sg4
F0.0011574074074074073
sa(dp341
g2
S'weve'
p342
sg4
F0.0011574074074074073
sa(dp343
g2
S'within'
p344
sg4
F0.0011574074074074073
sa(dp345
g2
S'without'
p346
sg4
F0.0011574074074074073
sa(dp347
g2
S'word'
p348
sg4
F0.0011574074074074073
sa(dp349
g2
S'world'
p350
sg4
F0.0011574074074074073
sa(dp351
g2
S'ya'
p352
sg4
F0.0011574074074074073
sa.