(lp0
(dp1
S'text'
p2
S'allah'
p3
sS'size'
p4
I2662
sa(dp5
g2
S'amp'
p6
sg4
I2060
sa(dp7
g2
S'ibnnabih'
p8
sg4
I920
sa(dp9
g2
S'abu'
p10
sg4
I748
sa(dp11
g2
S'al'
p12
sg4
I708
sa(dp13
g2
S'isis'
p14
sg4
I676
sa(dp15
g2
S'dont'
p16
sg4
I638
sa(dp17
g2
S'muslims'
p18
sg4
I586
sa(dp19
g2
S'ameen'
p20
sg4
I550
sa(dp21
g2
S'abusulayman321'
p22
sg4
I530
sa(dp23
g2
S'like'
p24
sg4
I524
sa(dp25
g2
S'people'
p26
sg4
I518
sa(dp27
g2
S'make'
p28
sg4
I500
sa(dp29
g2
S'jihad'
p30
sg4
I474
sa(dp31
g2
S'akhi'
p32
sg4
I460
sa(dp33
g2
S'said'
p34
sg4
I448
sa(dp35
g2
S'know'
p36
sg4
I438
sa(dp37
g2
S'say'
p38
sg4
I418
sa(dp39
g2
S'shaykh'
p40
sg4
I418
sa(dp41
g2
S'islam'
p42
sg4
I402
sa(dp43
g2
S'mansurabusayf'
p44
sg4
I396
sa(dp45
g2
S'jn'
p46
sg4
I388
sa(dp47
g2
S'even'
p48
sg4
I386
sa(dp49
g2
S'muslim'
p50
sg4
I374
sa(dp51
g2
S'killed'
p52
sg4
I370
sa(dp53
g2
S'good'
p54
sg4
I364
sa(dp55
g2
S'brothers'
p56
sg4
I358
sa(dp57
g2
S'syria'
p58
sg4
I334
sa(dp59
g2
S'http'
p60
sg4
I316
sa(dp61
g2
S'give'
p62
sg4
I314
sa(dp63
g2
S'shamiwitness'
p64
sg4
I312
sa(dp65
g2
S'altarefeen'
p66
sg4
I304
sa(dp67
g2
S'see'
p68
sg4
I298
sa(dp69
g2
S'new'
p70
sg4
I286
sa(dp71
g2
S'brother'
p72
sg4
I284
sa(dp73
g2
S'love'
p74
sg4
I282
sa(dp75
g2
S'mujahideen'
p76
sg4
I278
sa(dp77
g2
S'ya'
p78
sg4
I274
sa(dp79
g2
S'biladalshamdhi'
p80
sg4
I270
sa(dp81
g2
S'islamic'
p82
sg4
I256
sa(dp83
g2
S'taimiyyah'
p84
sg4
I252
sa(dp85
g2
S'ummah'
p86
sg4
I252
sa(dp87
g2
S'think'
p88
sg4
I250
sa(dp89
g2
S'julaybeeeeb'
p90
sg4
I248
sa(dp91
g2
S'want'
p92
sg4
I246
sa(dp93
g2
S'sham'
p94
sg4
I244
sa(dp95
g2
S'thats'
p96
sg4
I242
sa(dp97
g2
S'many'
p98
sg4
I238
sa(dp99
g2
S'sh'
p100
sg4
I238
sa(dp101
g2
S'never'
p102
sg4
I234
sa(dp103
g2
S'take'
p104
sg4
I234
sa(dp105
g2
S'upon'
p106
sg4
I230
sa(dp107
g2
S'islamicstate'
p108
sg4
I228
sa(dp109
g2
S'way'
p110
sg4
I228
sa(dp111
g2
S'time'
p112
sg4
I226
sa(dp113
g2
S'accept'
p114
sg4
I222
sa(dp115
g2
S'group'
p116
sg4
I218
sa(dp117
g2
S'read'
p118
sg4
I216
sa(dp119
g2
S'sheikh'
p120
sg4
I216
sa(dp121
g2
S'best'
p122
sg4
I214
sa(dp123
g2
S'im'
p124
sg4
I212
sa(dp125
g2
S'shaa'
p126
sg4
I212
sa(dp127
g2
S'bro'
p128
sg4
I210
sa(dp129
g2
S'doesnt'
p130
sg4
I200
sa(dp131
g2
S'scholars'
p132
sg4
I200
sa(dp133
g2
S'kuffar'
p134
sg4
I198
sa(dp135
g2
S'fighting'
p136
sg4
I192
sa(dp137
g2
S'ur'
p138
sg4
I190
sa(dp139
g2
S'iraq'
p140
sg4
I188
sa(dp141
g2
S'ibn'
p142
sg4
I184
sa(dp143
g2
S'get'
p144
sg4
I182
sa(dp145
g2
S'truth'
p146
sg4
I182
sa(dp147
g2
S'day'
p148
sg4
I180
sa(dp149
g2
S'please'
p150
sg4
I180
sa(dp151
g2
S'ahrar'
p152
sg4
I178
sa(dp153
g2
S'right'
p154
sg4
I176
sa(dp155
g2
S'come'
p156
sg4
I174
sa(dp157
g2
S'groups'
p158
sg4
I174
sa(dp159
g2
S'support'
p160
sg4
I172
sa(dp161
g2
S'httpt'
p162
sg4
I168
sa(dp163
g2
S'true'
p164
sg4
I168
sa(dp165
g2
S'well'
p166
sg4
I168
sa(dp167
g2
S'aleppo'
p168
sg4
I166
sa(dp169
g2
S'lol'
p170
sg4
I166
sa(dp171
g2
S'man'
p172
sg4
I166
sa(dp173
g2
S'says'
p174
sg4
I166
sa(dp175
g2
S'quran'
p176
sg4
I164
sa(dp177
g2
S'also'
p178
sg4
I162
sa(dp179
g2
S'made'
p180
sg4
I162
sa(dp181
g2
S'cant'
p182
sg4
I160
sa(dp183
g2
S'fight'
p184
sg4
I160
sa(dp185
g2
S'let'
p186
sg4
I160
sa(dp187
g2
S'state'
p188
sg4
I160
sa(dp189
g2
S'ask'
p190
sg4
I158
sa(dp191
g2
S'need'
p192
sg4
I158
sa(dp193
g2
S'today'
p194
sg4
I158
sa(dp195
g2
S'go'
p196
sg4
I156
sa(dp197
g2
S'protect'
p198
sg4
I156
sa(dp199
g2
S'sisters'
p200
sg4
I156
sa(dp201
g2
S'without'
p202
sg4
I156
sa(dp203
g2
S'much'
p204
sg4
I154
sa(dp205
g2
S'dua'
p206
sg4
I152
sa(dp207
g2
S'follow'
p208
sg4
I152
sa(dp209
g2
S'stop'
p210
sg4
I152
sa(dp211
g2
S'keep'
p212
sg4
I150
sa(dp213
g2
S'last'
p214
sg4
I148
sa(dp215
g2
S'leader'
p216
sg4
I148
sa(dp217
g2
S'life'
p218
sg4
I148
sa(dp219
g2
S'video'
p220
sg4
I148
sa(dp221
g2
S'back'
p222
sg4
I146
sa(dp223
g2
S'dawlatislam1'
p224
sg4
I146
sa(dp225
g2
S'attack'
p226
sg4
I144
sa(dp227
g2
S'didnt'
p228
sg4
I144
sa(dp229
g2
S'iraqiwitness'
p230
sg4
I144
sa(dp231
g2
S'fear'
p232
sg4
I142
sa(dp233
g2
S'kill'
p234
sg4
I142
sa(dp235
g2
S'free'
p236
sg4
I140
sa(dp237
g2
S'sunnah'
p238
sg4
I140
sa(dp239
g2
S'war'
p240
sg4
I140
sa(dp241
g2
S'media'
p242
sg4
I138
sa(dp243
g2
S'always'
p244
sg4
I136
sa(dp245
g2
S'call'
p246
sg4
I136
sa(dp247
g2
S'english'
p248
sg4
I136
sa(dp249
g2
S'victory'
p250
sg4
I136
sa(dp251
g2
S'bayah'
p252
sg4
I134
sa(dp253
g2
S'muhammad'
p254
sg4
I134
sa(dp255
g2
S'regime'
p256
sg4
I134
sa(dp257
g2
S'days'
p258
sg4
I132
sa(dp259
g2
S'help'
p260
sg4
I132
sa(dp261
g2
S'world'
p262
sg4
I132
sa(dp263
g2
S'still'
p264
sg4
I130
sa(dp265
g2
S'thing'
p266
sg4
I130
sa(dp267
g2
S'blood'
p268
sg4
I128
sa(dp269
g2
S'cause'
p270
sg4
I128
sa(dp271
g2
S'got'
p272
sg4
I128
sa(dp273
g2
S'munirxu'
p274
sg4
I128
sa(dp275
g2
S'ansar'
p276
sg4
I126
sa(dp277
g2
S'b'
p278
sg4
I126
sa(dp279
g2
S'better'
p280
sg4
I126
sa(dp281
g2
S'going'
p282
sg4
I126
sa(dp283
g2
S'saqransaar'
p284
sg4
I126
sa(dp285
g2
S'killing'
p286
sg4
I124
sa(dp287
g2
S'yeah'
p288
sg4
I124
sa(dp289
g2
S'away'
p290
sg4
I122
sa(dp291
g2
S'army'
p292
sg4
I120
sa(dp293
g2
S'saying'
p294
sg4
I120
sa(dp295
g2
S'soon'
p296
sg4
I120
sa(dp297
g2
S'yet'
p298
sg4
I120
sa(dp299
g2
S'death'
p300
sg4
I118
sa(dp301
g2
S'family'
p302
sg4
I118
sa(dp303
g2
S'ha'
p304
sg4
I118
sa(dp305
g2
S'really'
p306
sg4
I118
sa(dp307
g2
S'sister'
p308
sg4
I118
sa(dp309
g2
S'leaders'
p310
sg4
I116
sa(dp311
g2
S'mujahid'
p312
sg4
I116
sa(dp313
g2
S'assimalhakeem'
p314
sg4
I114
sa(dp315
g2
S'heart'
p316
sg4
I114
sa(dp317
g2
S'sharia'
p318
sg4
I114
sa(dp319
g2
S'something'
p320
sg4
I114
sa(dp321
g2
S'speech'
p322
sg4
I114
sa(dp323
g2
S'believe'
p324
sg4
I110
sa(dp325
g2
S'guide'
p326
sg4
I110
sa(dp327
g2
S'khalidmaghrebi'
p328
sg4
I110
sa(dp329
g2
S'mean'
p330
sg4
I110
sa(dp331
g2
S'enemies'
p332
sg4
I108
sa(dp333
g2
S'etc'
p334
sg4
I108
sa(dp335
g2
S'men'
p336
sg4
I108
sa(dp337
g2
S'sincere'
p338
sg4
I108
sa(dp339
g2
S'women'
p340
sg4
I108
sa(dp341
g2
S'abubaraa1'
p342
sg4
I106
sa(dp343
g2
S'account'
p344
sg4
I106
sa(dp345
g2
S'aq'
p346
sg4
I106
sa(dp347
g2
S'bros'
p348
sg4
I106
sa(dp349
g2
S'grant'
p350
sg4
I106
sa(dp351
g2
S'making'
p352
sg4
I106
sa(dp353
g2
S'nothing'
p354
sg4
I106
sa(dp355
g2
S'released'
p356
sg4
I106
sa(dp357
g2
S'eid'
p358
sg4
I104
sa(dp359
g2
S'forget'
p360
sg4
I104
sa(dp361
g2
S'khilafah'
p362
sg4
I104
sa(dp363
g2
S'khorasanwitness'
p364
sg4
I104
sa(dp365
g2
S'sake'
p366
sg4
I104
sa(dp367
g2
S'used'
p368
sg4
I104
sa(dp369
g2
S'allahs'
p370
sg4
I102
sa(dp371
g2
S'jannah'
p372
sg4
I102
sa(dp373
g2
S'things'
p374
sg4
I102
sa(dp375
g2
S'yaa'
p376
sg4
I102
sa(dp377
g2
S'o'
p378
sg4
I100
sa(dp379
g2
S'others'
p380
sg4
I100
sa(dp381
g2
S'regarding'
p382
sg4
I100
sa(dp383
g2
S'remember'
p384
sg4
I100
sa(dp385
g2
S'west'
p386
sg4
I100
sa(dp387
g2
S'abdullah'
p388
sg4
I98
sa(dp389
g2
S'bin'
p390
sg4
I98
sa(dp391
g2
S'deen'
p392
sg4
I98
sa(dp393
g2
S'knowledge'
p394
sg4
I98
sa(dp395
g2
S'nusra'
p396
sg4
I98
sa(dp397
g2
S'person'
p398
sg4
I98
sa(dp399
g2
S'prophet'
p400
sg4
I98
sa(dp401
g2
S'shia'
p402
sg4
I98
sa(dp403
g2
S'whats'
p404
sg4
I98
sa(dp405
g2
S'imam'
p406
sg4
I96
sa(dp407
g2
S'indeed'
p408
sg4
I96
sa(dp409
g2
S'saw'
p410
sg4
I96
sa(dp411
g2
S'statement'
p412
sg4
I96
sa(dp413
g2
S'words'
p414
sg4
I96
sa(dp415
g2
S'h'
p416
sg4
I94
sa(dp417
g2
S'religion'
p418
sg4
I94
sa(dp419
g2
S'agree'
p420
sg4
I92
sa(dp421
g2
S'bring'
p422
sg4
I92
sa(dp423
g2
S'find'
p424
sg4
I92
sa(dp425
g2
S'military'
p426
sg4
I92
sa(dp427
g2
S'release'
p428
sg4
I92
sa(dp429
g2
S'ahmadmusajibril'
p430
sg4
I90
sa(dp431
g2
S'akhil'
p432
sg4
I90
sa(dp433
g2
S'first'
p434
sg4
I90
sa(dp435
g2
S'front'
p436
sg4
I90
sa(dp437
g2
S'gaza'
p438
sg4
I90
sa(dp439
g2
S'hearts'
p440
sg4
I90
sa(dp441
g2
S'look'
p442
sg4
I90
sa(dp443
g2
S'na'
p444
sg4
I90
sa(dp445
g2
S'ppl'
p446
sg4
I90
sa(dp447
g2
S'shariah'
p448
sg4
I90
sa(dp449
g2
S'abuayubmuhammad'
p450
sg4
I88
sa(dp451
g2
S'aint'
p452
sg4
I88
sa(dp453
g2
S'become'
p454
sg4
I88
sa(dp455
g2
S'breaking'
p456
sg4
I88
sa(dp457
g2
S'everything'
p458
sg4
I88
sa(dp459
g2
S'haqq'
p460
sg4
I88
sa(dp461
g2
S'martyred'
p462
sg4
I88
sa(dp463
g2
S'unite'
p464
sg4
I88
sa(dp465
g2
S'wrong'
p466
sg4
I88
sa(dp467
g2
S'called'
p468
sg4
I86
sa(dp469
g2
S'children'
p470
sg4
I86
sa(dp471
g2
S'kufr'
p472
sg4
I86
sa(dp473
g2
S'long'
p474
sg4
I86
sa(dp475
g2
S'someone'
p476
sg4
I86
sa(dp477
g2
S'takfeer'
p478
sg4
I86
sa(dp479
g2
S'twitter'
p480
sg4
I86
sa(dp481
g2
S'whoever'
p482
sg4
I86
sa(dp483
g2
S'around'
p484
sg4
I84
sa(dp485
g2
S'court'
p486
sg4
I84
sa(dp487
g2
S'fitna'
p488
sg4
I84
sa(dp489
g2
S'gave'
p490
sg4
I84
sa(dp491
g2
S'matter'
p492
sg4
I84
sa(dp493
g2
S'path'
p494
sg4
I84
sa(dp495
g2
S'point'
p496
sg4
I84
sa(dp497
g2
S'umar'
p498
sg4
I84
sa(dp499
g2
S'alnusrah'
p500
sg4
I82
sa(dp501
g2
S'big'
p502
sg4
I82
sa(dp503
g2
S'ever'
p504
sg4
I82
sa(dp505
g2
S'f'
p506
sg4
I82
sa(dp507
g2
S'leave'
p508
sg4
I82
sa(dp509
g2
S'part'
p510
sg4
I82
sa(dp511
g2
S'silenttweep'
p512
sg4
I82
sa(dp513
g2
S'talk'
p514
sg4
I82
sa(dp515
g2
S'yemen'
p516
sg4
I82
sa(dp517
g2
S'duas'
p518
sg4
I80
sa(dp519
g2
S'news'
p520
sg4
I80
sa(dp521
g2
S'place'
p522
sg4
I80
sa(dp523
g2
S'since'
p524
sg4
I80
sa(dp525
g2
S'soldiers'
p526
sg4
I80
sa(dp527
g2
S'understand'
p528
sg4
I80
sa(dp529
g2
S'assad'
p530
sg4
I78
sa(dp531
g2
S'came'
p532
sg4
I78
sa(dp533
g2
S'clear'
p534
sg4
I78
sa(dp535
g2
S'important'
p536
sg4
I78
sa(dp537
g2
S'issue'
p538
sg4
I78
sa(dp539
g2
S'ive'
p540
sg4
I78
sa(dp541
g2
S'khawarij'
p542
sg4
I78
sa(dp543
g2
S'old'
p544
sg4
I78
sa(dp545
g2
S'prison'
p546
sg4
I78
sa(dp547
g2
S'real'
p548
sg4
I78
sa(dp549
g2
S'sad'
p550
sg4
I78
sa(dp551
g2
S'wont'
p552
sg4
I78
sa(dp553
g2
S'advice'
p554
sg4
I76
sa(dp555
g2
S'alqaeda'
p556
sg4
I76
sa(dp557
g2
S'aqap'
p558
sg4
I76
sa(dp559
g2
S'attacked'
p560
sg4
I76
sa(dp561
g2
S'coming'
p562
sg4
I76
sa(dp563
g2
S'fighters'
p564
sg4
I76
sa(dp565
g2
S'khattab23'
p566
sg4
I76
sa(dp567
g2
S'n'
p568
sg4
I76
sa(dp569
g2
S'ones'
p570
sg4
I76
sa(dp571
g2
S'towards'
p572
sg4
I76
sa(dp573
g2
S'battle'
p574
sg4
I74
sa(dp575
g2
S'destroy'
p576
sg4
I74
sa(dp577
g2
S'done'
p578
sg4
I74
sa(dp579
g2
S'except'
p580
sg4
I74
sa(dp581
g2
S'guys'
p582
sg4
I74
sa(dp583
g2
S'isiswitness'
p584
sg4
I74
sa(dp585
g2
S'khilafa'
p586
sg4
I74
sa(dp587
g2
S'maqdisi'
p588
sg4
I74
sa(dp589
g2
S'mercy'
p590
sg4
I74
sa(dp591
g2
S'nickimanhaj'
p592
sg4
I74
sa(dp593
g2
S'peace'
p594
sg4
I74
sa(dp595
g2
S'syrian'
p596
sg4
I74
sa(dp597
g2
S'translation'
p598
sg4
I74
sa(dp599
g2
S'usa'
p600
sg4
I74
sa(dp601
g2
S'ahki'
p602
sg4
I72
sa(dp603
g2
S'ajaz707'
p604
sg4
I72
sa(dp605
g2
S'anyone'
p606
sg4
I72
sa(dp607
g2
S'bad'
p608
sg4
I72
sa(dp609
g2
S'believers'
p610
sg4
I72
sa(dp611
g2
S'https'
p612
sg4
I72
sa(dp613
g2
S'join'
p614
sg4
I72
sa(dp615
g2
S'known'
p616
sg4
I72
sa(dp617
g2
S'learn'
p618
sg4
I72
sa(dp619
g2
S'little'
p620
sg4
I72
sa(dp621
g2
S'live'
p622
sg4
I72
sa(dp623
g2
S'makes'
p624
sg4
I72
sa(dp625
g2
S'maybe'
p626
sg4
I72
sa(dp627
g2
S'near'
p628
sg4
I72
sa(dp629
g2
S'onthatpath3'
p630
sg4
I72
sa(dp631
g2
S'rather'
p632
sg4
I72
sa(dp633
g2
S'saudi'
p634
sg4
I72
sa(dp635
g2
S'z'
p636
sg4
I72
sa(dp637
g2
S'alnusra'
p638
sg4
I70
sa(dp639
g2
S'america'
p640
sg4
I70
sa(dp641
g2
S'anything'
p642
sg4
I70
sa(dp643
g2
S'due'
p644
sg4
I70
sa(dp645
g2
S'farahgazan'
p646
sg4
I70
sa(dp647
g2
S'hell'
p648
sg4
I70
sa(dp649
g2
S'jan'
p650
sg4
I70
sa(dp651
g2
S'speaking'
p652
sg4
I70
sa(dp653
g2
S'taliban'
p654
sg4
I70
sa(dp655
g2
S'talking'
p656
sg4
I70
sa(dp657
g2
S'went'
p658
sg4
I70
sa(dp659
g2
S'years'
p660
sg4
I70
sa(dp661
g2
S'abt'
p662
sg4
I68
sa(dp663
g2
S'alhamdulillah'
p664
sg4
I68
sa(dp665
g2
S'asked'
p666
sg4
I68
sa(dp667
g2
S'british'
p668
sg4
I68
sa(dp669
g2
S'fsa'
p670
sg4
I68
sa(dp671
g2
S'hes'
p672
sg4
I68
sa(dp673
g2
S'innocent'
p674
sg4
I68
sa(dp675
g2
S'left'
p676
sg4
I68
sa(dp677
g2
S'means'
p678
sg4
I68
sa(dp679
g2
S'mujahidmusa123'
p680
sg4
I68
sa(dp681
g2
S'takfir'
p682
sg4
I68
sa(dp683
g2
S'try'
p684
sg4
I68
sa(dp685
g2
S'wa'
p686
sg4
I68
sa(dp687
g2
S'ago'
p688
sg4
I66
sa(dp689
g2
S'end'
p690
sg4
I66
sa(dp691
g2
S'enemy'
p692
sg4
I66
sa(dp693
g2
S'israel'
p694
sg4
I66
sa(dp695
g2
S'kaffir'
p696
sg4
I66
sa(dp697
g2
S'lies'
p698
sg4
I66
sa(dp699
g2
S'ramadan'
p700
sg4
I66
sa(dp701
g2
S'save'
p702
sg4
I66
sa(dp703
g2
S'tell'
p704
sg4
I66
sa(dp705
g2
S'told'
p706
sg4
I66
sa(dp707
g2
S'took'
p708
sg4
I66
sa(dp709
g2
S'yes'
p710
sg4
I66
sa(dp711
g2
S'among'
p712
sg4
I64
sa(dp713
g2
S'dear'
p714
sg4
I64
sa(dp715
g2
S'fighter'
p716
sg4
I64
sa(dp717
g2
S'great'
p718
sg4
I64
sa(dp719
g2
S'home'
p720
sg4
I64
sa(dp721
g2
S'idlib'
p722
sg4
I64
sa(dp723
g2
S'ill'
p724
sg4
I64
sa(dp725
g2
S'isnt'
p726
sg4
I64
sa(dp727
g2
S'khayr'
p728
sg4
I64
sa(dp729
g2
S'khorasan313'
p730
sg4
I64
sa(dp731
g2
S'knows'
p732
sg4
I64
sa(dp733
g2
S'rh'
p734
sg4
I64
sa(dp735
g2
S'subhanallah'
p736
sg4
I64
sa(dp737
g2
S'swt'
p738
sg4
I64
sa(dp739
g2
S'ahmedshaheed86'
p740
sg4
I62
sa(dp741
g2
S'amongst'
p742
sg4
I62
sa(dp743
g2
S'ashshawqi'
p744
sg4
I62
sa(dp745
g2
S'beautiful'
p746
sg4
I62
sa(dp747
g2
S'dawlatislam2'
p748
sg4
I62
sa(dp749
g2
S'extremism'
p750
sg4
I62
sa(dp751
g2
S'fanboys'
p752
sg4
I62
sa(dp753
g2
S'hate'
p754
sg4
I62
sa(dp755
g2
S'jabhat'
p756
sg4
I62
sa(dp757
g2
S'lie'
p758
sg4
I62
sa(dp759
g2
S'oh'
p760
sg4
I62
sa(dp761
g2
S'put'
p762
sg4
I62
sa(dp763
g2
S'seems'
p764
sg4
I62
sa(dp765
g2
S'speak'
p766
sg4
I62
sa(dp767
g2
S'taking'
p768
sg4
I62
sa(dp769
g2
S'w'
p770
sg4
I62
sa(dp771
g2
S'word'
p772
sg4
I62
sa(dp773
g2
S'abouhourayra2'
p774
sg4
I60
sa(dp775
g2
S'calling'
p776
sg4
I60
sa(dp777
g2
S'dawla'
p778
sg4
I60
sa(dp779
g2
S'everyone'
p780
sg4
I60
sa(dp781
g2
S'far'
p782
sg4
I60
sa(dp783
g2
S'frm'
p784
sg4
I60
sa(dp785
g2
S'full'
p786
sg4
I60
sa(dp787
g2
S'getting'
p788
sg4
I60
sa(dp789
g2
S'habibi'
p790
sg4
I60
sa(dp791
g2
S'hope'
p792
sg4
I60
sa(dp793
g2
S'httptco'
p794
sg4
I60
sa(dp795
g2
S'kareem'
p796
sg4
I60
sa(dp797
g2
S'link'
p798
sg4
I60
sa(dp799
g2
S'martyrdom'
p800
sg4
I60
sa(dp801
g2
S'message'
p802
sg4
I60
sa(dp803
g2
S'ra'
p804
sg4
I60
sa(dp805
g2
S'shari'
p806
sg4
I60
sa(dp807
g2
S'trying'
p808
sg4
I60
sa(dp809
g2
S'wal'
p810
sg4
I60
sa(dp811
g2
S'abdujanah'
p812
sg4
I58
sa(dp813
g2
S'aboojihad2013'
p814
sg4
I58
sa(dp815
g2
S'ali'
p816
sg4
I58
sa(dp817
g2
S'amazing'
p818
sg4
I58
sa(dp819
g2
S'answer'
p820
sg4
I58
sa(dp821
g2
S'comes'
p822
sg4
I58
sa(dp823
g2
S'hadith'
p824
sg4
I58
sa(dp825
g2
S'land'
p826
sg4
I58
sa(dp827
g2
S'maliwitness'
p828
sg4
I58
sa(dp829
g2
S'next'
p830
sg4
I58
sa(dp831
g2
S'obama'
p832
sg4
I58
sa(dp833
g2
S'ok'
p834
sg4
I58
sa(dp835
g2
S'question'
p836
sg4
I58
sa(dp837
g2
S'reward'
p838
sg4
I58
sa(dp839
g2
S'son'
p840
sg4
I58
sa(dp841
g2
S'spread'
p842
sg4
I58
sa(dp843
g2
S'tawheed'
p844
sg4
I58
sa(dp845
g2
S'times'
p846
sg4
I58
sa(dp847
g2
S'ukhti'
p848
sg4
I58
sa(dp849
g2
S'work'
p850
sg4
I58
sa(dp851
g2
S'year'
p852
sg4
I58
sa(dp853
g2
S'ameer'
p854
sg4
I56
sa(dp855
g2
S'cheerleadunited'
p856
sg4
I56
sa(dp857
g2
S'claim'
p858
sg4
I56
sa(dp859
g2
S'doubt'
p860
sg4
I56
sa(dp861
g2
S'forgive'
p862
sg4
I56
sa(dp863
g2
S'ghazishami'
p864
sg4
I56
sa(dp865
g2
S'iimii'
p866
sg4
I56
sa(dp867
g2
S'judge'
p868
sg4
I56
sa(dp869
g2
S'official'
p870
sg4
I56
sa(dp871
g2
S'send'
p872
sg4
I56
sa(dp873
g2
S'somalia'
p874
sg4
I56
sa(dp875
g2
S'turn'
p876
sg4
I56
sa(dp877
g2
S'ulama'
p878
sg4
I56
sa(dp879
g2
S'yesterday'
p880
sg4
I56
sa(dp881
g2
S'abdwd1'
p882
sg4
I54
sa(dp883
g2
S'alone'
p884
sg4
I54
sa(dp885
g2
S'american'
p886
sg4
I54
sa(dp887
g2
S'authentictauhed'
p888
sg4
I54
sa(dp889
g2
S'based'
p890
sg4
I54
sa(dp891
g2
S'beloved'
p892
sg4
I54
sa(dp893
g2
S'guy'
p894
sg4
I54
sa(dp895
g2
S'ignorant'
p896
sg4
I54
sa(dp897
g2
S'joined'
p898
sg4
I54
sa(dp899
g2
S'kafir'
p900
sg4
I54
sa(dp901
g2
S'listen'
p902
sg4
I54
sa(dp903
g2
S'night'
p904
sg4
I54
sa(dp905
g2
S'rabb'
p906
sg4
I54
sa(dp907
g2
S'reason'
p908
sg4
I54
sa(dp909
g2
S'start'
p910
sg4
I54
sa(dp911
g2
S'supporters'
p912
sg4
I54
sa(dp913
g2
S'th'
p914
sg4
I54
sa(dp915
g2
S'use'
p916
sg4
I54
sa(dp917
g2
S'via'
p918
sg4
I54
sa(dp919
g2
S'absolutely'
p920
sg4
I52
sa(dp921
g2
S'abughamad'
p922
sg4
I52
sa(dp923
g2
S'abusaalihah'
p924
sg4
I52
sa(dp925
g2
S'alsham'
p926
sg4
I52
sa(dp927
g2
S'amaturrahman'
p928
sg4
I52
sa(dp929
g2
S'ayman'
p930
sg4
I52
sa(dp931
g2
S'behind'
p932
sg4
I52
sa(dp933
g2
S'dawlah'
p934
sg4
I52
sa(dp935
g2
S'difference'
p936
sg4
I52
sa(dp937
g2
S'evil'
p938
sg4
I52
sa(dp939
g2
S'heard'
p940
sg4
I52
sa(dp941
g2
S'inshallah'
p942
sg4
I52
sa(dp943
g2
S'jews'
p944
sg4
I52
sa(dp945
g2
S'kids'
p946
sg4
I52
sa(dp947
g2
S'law'
p948
sg4
I52
sa(dp949
g2
S'mind'
p950
sg4
I52
sa(dp951
g2
S'name'
p952
sg4
I52
sa(dp953
g2
S'salaf'
p954
sg4
I52
sa(dp955
g2
S'shibntaymiyyah'
p956
sg4
I52
sa(dp957
g2
S'sure'
p958
sg4
I52
sa(dp959
g2
S'truthisis'
p960
sg4
I52
sa(dp961
g2
S'truthsmaster'
p962
sg4
I52
sa(dp963
g2
S'wife'
p964
sg4
I52
sa(dp965
g2
S'ahmad'
p966
sg4
I50
sa(dp967
g2
S'attacks'
p968
sg4
I50
sa(dp969
g2
S'bakr'
p970
sg4
I50
sa(dp971
g2
S'case'
p972
sg4
I50
sa(dp973
g2
S'deeds'
p974
sg4
I50
sa(dp975
g2
S'die'
p976
sg4
I50
sa(dp977
g2
S'giving'
p978
sg4
I50
sa(dp979
g2
S'greenbird14'
p980
sg4
I50
sa(dp981
g2
S'lifeofmujahid1'
p982
sg4
I50
sa(dp983
g2
S'm'
p984
sg4
I50
sa(dp985
g2
S'met'
p986
sg4
I50
sa(dp987
g2
S'muhajir'
p988
sg4
I50
sa(dp989
g2
S'ranks'
p990
sg4
I50
sa(dp991
g2
S'show'
p992
sg4
I50
sa(dp993
g2
S'situation'
p994
sg4
I50
sa(dp995
g2
S'taken'
p996
sg4
I50
sa(dp997
g2
S'using'
p998
sg4
I50
sa(dp999
g2
S'according'
p1000
sg4
I48
sa(dp1001
g2
S'adnani'
p1002
sg4
I48
sa(dp1003
g2
S'aqim'
p1004
sg4
I48
sa(dp1005
g2
S'book'
p1006
sg4
I48
sa(dp1007
g2
S'brotherjalaal'
p1008
sg4
I48
sa(dp1009
g2
S'caliphate'
p1010
sg4
I48
sa(dp1011
g2
S'dr'
p1012
sg4
I48
sa(dp1013
g2
S'eyes'
p1014
sg4
I48
sa(dp1015
g2
S'feel'
p1016
sg4
I48
sa(dp1017
g2
S'friend'
p1018
sg4
I48
sa(dp1019
g2
S'ground'
p1020
sg4
I48
sa(dp1021
g2
S'happy'
p1022
sg4
I48
sa(dp1023
g2
S'hear'
p1024
sg4
I48
sa(dp1025
g2
S'jihadservices'
p1026
sg4
I48
sa(dp1027
g2
S'justice'
p1028
sg4
I48
sa(dp1029
g2
S'khalid'
p1030
sg4
I48
sa(dp1031
g2
S'mother'
p1032
sg4
I48
sa(dp1033
g2
S'muhajirishaam01'
p1034
sg4
I48
sa(dp1035
g2
S'namelessukhti'
p1036
sg4
I48
sa(dp1037
g2
S'reports'
p1038
sg4
I48
sa(dp1039
g2
S'seen'
p1040
sg4
I48
sa(dp1041
g2
S'shuhada'
p1042
sg4
I48
sa(dp1043
g2
S'story'
p1044
sg4
I48
sa(dp1045
g2
S'stuff'
p1046
sg4
I48
sa(dp1047
g2
S'theyre'
p1048
sg4
I48
sa(dp1049
g2
S'watch'
p1050
sg4
I48
sa(dp1051
g2
S'wish'
p1052
sg4
I48
sa(dp1053
g2
S'abueethar'
p1054
sg4
I46
sa(dp1055
g2
S'aid'
p1056
sg4
I46
sa(dp1057
g2
S'attacking'
p1058
sg4
I46
sa(dp1059
g2
S'baghdadi'
p1060
sg4
I46
sa(dp1061
g2
S'change'
p1062
sg4
I46
sa(dp1063
g2
S'charleslister'
p1064
sg4
I46
sa(dp1065
g2
S'city'
p1066
sg4
I46
sa(dp1067
g2
S'covenant'
p1068
sg4
I46
sa(dp1069
g2
S'especially'
p1070
sg4
I46
sa(dp1071
g2
S'gazaunderattack'
p1072
sg4
I46
sa(dp1073
g2
S'honor'
p1074
sg4
I46
sa(dp1075
g2
S'image'
p1076
sg4
I46
sa(dp1077
g2
S'irhabiyyah'
p1078
sg4
I46
sa(dp1079
g2
S'jakali'
p1080
sg4
I46
sa(dp1081
g2
S'jund'
p1082
sg4
I46
sa(dp1083
g2
S'khilafahproclaimed'
p1084
sg4
I46
sa(dp1085
g2
S'latest'
p1086
sg4
I46
sa(dp1087
g2
S'month'
p1088
sg4
I46
sa(dp1089
g2
S'months'
p1090
sg4
I46
sa(dp1091
g2
S'needs'
p1092
sg4
I46
sa(dp1093
g2
S'position'
p1094
sg4
I46
sa(dp1095
g2
S'pray'
p1096
sg4
I46
sa(dp1097
g2
S'sent'
p1098
sg4
I46
sa(dp1099
g2
S'sherj'
p1100
sg4
I46
sa(dp1101
g2
S'side'
p1102
sg4
I46
sa(dp1103
g2
S'uk'
p1104
sg4
I46
sa(dp1105
g2
S'ummdujanah'
p1106
sg4
I46
sa(dp1107
g2
S'victories'
p1108
sg4
I46
sa(dp1109
g2
S'whos'
p1110
sg4
I46
sa(dp1111
g2
S'alfirdaws'
p1112
sg4
I44
sa(dp1113
g2
S'camp'
p1114
sg4
I44
sa(dp1115
g2
S'captured'
p1116
sg4
I44
sa(dp1117
g2
S'coalition'
p1118
sg4
I44
sa(dp1119
g2
S'dirty'
p1120
sg4
I44
sa(dp1121
g2
S'dogs'
p1122
sg4
I44
sa(dp1123
g2
S'droopdelacreme'
p1124
sg4
I44
sa(dp1125
g2
S'else'
p1126
sg4
I44
sa(dp1127
g2
S'evidence'
p1128
sg4
I44
sa(dp1129
g2
S'extremists'
p1130
sg4
I44
sa(dp1131
g2
S'filthy'
p1132
sg4
I44
sa(dp1133
g2
S'following'
p1134
sg4
I44
sa(dp1135
g2
S'funny'
p1136
sg4
I44
sa(dp1137
g2
S'hard'
p1138
sg4
I44
sa(dp1139
g2
S'history'
p1140
sg4
I44
sa(dp1141
g2
S'htt'
p1142
sg4
I44
sa(dp1143
g2
S'ia'
p1144
sg4
I44
sa(dp1145
g2
S'lord'
p1146
sg4
I44
sa(dp1147
g2
S'lot'
p1148
sg4
I44
sa(dp1149
g2
S'moakhan'
p1150
sg4
I44
sa(dp1151
g2
S'muhajireen'
p1152
sg4
I44
sa(dp1153
g2
S'mujahidin'
p1154
sg4
I44
sa(dp1155
g2
S'open'
p1156
sg4
I44
sa(dp1157
g2
S'police'
p1158
sg4
I44
sa(dp1159
g2
S'proof'
p1160
sg4
I44
sa(dp1161
g2
S'qatada'
p1162
sg4
I44
sa(dp1163
g2
S'showing'
p1164
sg4
I44
sa(dp1165
g2
S'stay'
p1166
sg4
I44
sa(dp1167
g2
S'though'
p1168
sg4
I44
sa(dp1169
g2
S'truly'
p1170
sg4
I44
sa(dp1171
g2
S'ukmuslim'
p1172
sg4
I44
sa(dp1173
g2
S'ummabdulmalik'
p1174
sg4
I44
sa(dp1175
g2
S'woman'
p1176
sg4
I44
sa(dp1177
g2
S'allahu'
p1178
sg4
I42
sa(dp1179
g2
S'already'
p1180
sg4
I42
sa(dp1181
g2
S'amir'
p1182
sg4
I42
sa(dp1183
g2
S'ayeshaab96'
p1184
sg4
I42
sa(dp1185
g2
S'bless'
p1186
sg4
I42
sa(dp1187
g2
S'bombing'
p1188
sg4
I42
sa(dp1189
g2
S'dead'
p1190
sg4
I42
sa(dp1191
g2
S'dunya'
p1192
sg4
I42
sa(dp1193
g2
S'easy'
p1194
sg4
I42
sa(dp1195
g2
S'fatwa'
p1196
sg4
I42
sa(dp1197
g2
S'firm'
p1198
sg4
I42
sa(dp1199
g2
S'gon'
p1200
sg4
I42
sa(dp1201
g2
S'hands'
p1202
sg4
I42
sa(dp1203
g2
S'haram'
p1204
sg4
I42
sa(dp1205
g2
S'head'
p1206
sg4
I42
sa(dp1207
g2
S'hellfire'
p1208
sg4
I42
sa(dp1209
g2
S'hit'
p1210
sg4
I42
sa(dp1211
g2
S'httptc'
p1212
sg4
I42
sa(dp1213
g2
S'jundreporter1'
p1214
sg4
I42
sa(dp1215
g2
S'least'
p1216
sg4
I42
sa(dp1217
g2
S'lets'
p1218
sg4
I42
sa(dp1219
g2
S'manhaj'
p1220
sg4
I42
sa(dp1221
g2
S'previous'
p1222
sg4
I42
sa(dp1223
g2
S'problem'
p1224
sg4
I42
sa(dp1225
g2
S're'
p1226
sg4
I42
sa(dp1227
g2
S'seek'
p1228
sg4
I42
sa(dp1229
g2
S'shabab'
p1230
sg4
I42
sa(dp1231
g2
S'shinqity01'
p1232
sg4
I42
sa(dp1233
g2
S'sin'
p1234
sg4
I42
sa(dp1235
g2
S'stand'
p1236
sg4
I42
sa(dp1237
g2
S'strike'
p1238
sg4
I42
sa(dp1239
g2
S'strikes'
p1240
sg4
I42
sa(dp1241
g2
S'takes'
p1242
sg4
I42
sa(dp1243
g2
S'wants'
p1244
sg4
I42
sa(dp1245
g2
S'alikhokhar89'
p1246
sg4
I40
sa(dp1247
g2
S'anjemchoudary'
p1248
sg4
I40
sa(dp1249
g2
S'arabic'
p1250
sg4
I40
sa(dp1251
g2
S'arrested'
p1252
sg4
I40
sa(dp1253
g2
S'bil'
p1254
sg4
I40
sa(dp1255
g2
S'bombs'
p1256
sg4
I40
sa(dp1257
g2
S'courts'
p1258
sg4
I40
sa(dp1259
g2
S'cowards'
p1260
sg4
I40
sa(dp1261
g2
S'defend'
p1262
sg4
I40
sa(dp1263
g2
S'earth'
p1264
sg4
I40
sa(dp1265
g2
S'expect'
p1266
sg4
I40
sa(dp1267
g2
S'fiqh'
p1268
sg4
I40
sa(dp1269
g2
S'fought'
p1270
sg4
I40
sa(dp1271
g2
S'goes'
p1272
sg4
I40
sa(dp1273
g2
S'happened'
p1274
sg4
I40
sa(dp1275
g2
S'hassan'
p1276
sg4
I40
sa(dp1277
g2
S'havent'
p1278
sg4
I40
sa(dp1279
g2
S'jubaadarda'
p1280
sg4
I40
sa(dp1281
g2
S'justify'
p1282
sg4
I40
sa(dp1283
g2
S'lost'
p1284
sg4
I40
sa(dp1285
g2
S'mentioned'
p1286
sg4
I40
sa(dp1287
g2
S'money'
p1288
sg4
I40
sa(dp1289
g2
S'murtadeen'
p1290
sg4
I40
sa(dp1291
g2
S'parents'
p1292
sg4
I40
sa(dp1293
g2
S'pleased'
p1294
sg4
I40
sa(dp1295
g2
S'respect'
p1296
sg4
I40
sa(dp1297
g2
S'serious'
p1298
sg4
I40
sa(dp1299
g2
S'training'
p1300
sg4
I40
sa(dp1301
g2
S'trust'
p1302
sg4
I40
sa(dp1303
g2
S'tweets'
p1304
sg4
I40
sa(dp1305
g2
S'ulaama'
p1306
sg4
I40
sa(dp1307
g2
S'witness'
p1308
sg4
I40
sa(dp1309
g2
S'youll'
p1310
sg4
I40
sa(dp1311
g2
S'act'
p1312
sg4
I38
sa(dp1313
g2
S'actually'
p1314
sg4
I38
sa(dp1315
g2
S'allaah'
p1316
sg4
I38
sa(dp1317
g2
S'almaqdisi'
p1318
sg4
I38
sa(dp1319
g2
S'announcement'
p1320
sg4
I38
sa(dp1321
g2
S'arent'
p1322
sg4
I38
sa(dp1323
g2
S'azzam'
p1324
sg4
I38
sa(dp1325
g2
S'b4'
p1326
sg4
I38
sa(dp1327
g2
S'biggest'
p1328
sg4
I38
sa(dp1329
g2
S'blessed'
p1330
sg4
I38
sa(dp1331
g2
S'conditions'
p1332
sg4
I38
sa(dp1333
g2
S'example'
p1334
sg4
I38
sa(dp1335
g2
S'given'
p1336
sg4
I38
sa(dp1337
g2
S'gone'
p1338
sg4
I38
sa(dp1339
g2
S'hama'
p1340
sg4
I38
sa(dp1341
g2
S'ibntamiyyaah'
p1342
sg4
I38
sa(dp1343
g2
S'jabhatalnusraen'
p1344
sg4
I38
sa(dp1345
g2
S'lead'
p1346
sg4
I38
sa(dp1347
g2
S'lions'
p1348
sg4
I38
sa(dp1349
g2
S'loads'
p1350
sg4
I38
sa(dp1351
g2
S'manners'
p1352
sg4
I38
sa(dp1353
g2
S'married'
p1354
sg4
I38
sa(dp1355
g2
S'messenger'
p1356
sg4
I38
sa(dp1357
g2
S'mullah'
p1358
sg4
I38
sa(dp1359
g2
S'pls'
p1360
sg4
I38
sa(dp1361
g2
S'prt'
p1362
sg4
I38
sa(dp1363
g2
S'remain'
p1364
sg4
I38
sa(dp1365
g2
S'thetweetingzed'
p1366
sg4
I38
sa(dp1367
g2
S'ummaqsa'
p1368
sg4
I38
sa(dp1369
g2
S'unity'
p1370
sg4
I38
sa(dp1371
g2
S'wallahi'
p1372
sg4
I38
sa(dp1373
g2
S'wan'
p1374
sg4
I38
sa(dp1375
g2
S'whole'
p1376
sg4
I38
sa(dp1377
g2
S'abusuleiman'
p1378
sg4
I36
sa(dp1379
g2
S'abutawba'
p1380
sg4
I36
sa(dp1381
g2
S'alan'
p1382
sg4
I36
sa(dp1383
g2
S'along'
p1384
sg4
I36
sa(dp1385
g2
S'apostates'
p1386
sg4
I36
sa(dp1387
g2
S'areas'
p1388
sg4
I36
sa(dp1389
g2
S'blind'
p1390
sg4
I36
sa(dp1391
g2
S'break'
p1392
sg4
I36
sa(dp1393
g2
S'brigade'
p1394
sg4
I36
sa(dp1395
g2
S'car'
p1396
sg4
I36
sa(dp1397
g2
S'complete'
p1398
sg4
I36
sa(dp1399
g2
S'condition'
p1400
sg4
I36
sa(dp1401
g2
S'continue'
p1402
sg4
I36
sa(dp1403
g2
S'correct'
p1404
sg4
I36
sa(dp1405
g2
S'country'
p1406
sg4
I36
sa(dp1407
g2
S'criminals'
p1408
sg4
I36
sa(dp1409
g2
S'dog'
p1410
sg4
I36
sa(dp1411
g2
S'emir'
p1412
sg4
I36
sa(dp1413
g2
S'families'
p1414
sg4
I36
sa(dp1415
g2
S'fire'
p1416
sg4
I36
sa(dp1417
g2
S'flag'
p1418
sg4
I36
sa(dp1419
g2
S'found'
p1420
sg4
I36
sa(dp1421
g2
S'fr'
p1422
sg4
I36
sa(dp1423
g2
S'friends'
p1424
sg4
I36
sa(dp1425
g2
S'happen'
p1426
sg4
I36
sa(dp1427
g2
S'hasanmustafas'
p1428
sg4
I36
sa(dp1429
g2
S'homs'
p1430
sg4
I36
sa(dp1431
g2
S'humble'
p1432
sg4
I36
sa(dp1433
g2
S'imagine'
p1434
sg4
I36
sa(dp1435
g2
S'independent'
p1436
sg4
I36
sa(dp1437
g2
S'issues'
p1438
sg4
I36
sa(dp1439
g2
S'knew'
p1440
sg4
I36
sa(dp1441
g2
S'less'
p1442
sg4
I36
sa(dp1443
g2
S'lifeofmujahid'
p1444
sg4
I36
sa(dp1445
g2
S'marry'
p1446
sg4
I36
sa(dp1447
g2
S'observermiddle'
p1448
sg4
I36
sa(dp1449
g2
S'oppose'
p1450
sg4
I36
sa(dp1451
g2
S'patience'
p1452
sg4
I36
sa(dp1453
g2
S'pkk'
p1454
sg4
I36
sa(dp1455
g2
S'prisoners'
p1456
sg4
I36
sa(dp1457
g2
S'reality'
p1458
sg4
I36
sa(dp1459
g2
S'retweet'
p1460
sg4
I36
sa(dp1461
g2
S'rule'
p1462
sg4
I36
sa(dp1463
g2
S'seeing'
p1464
sg4
I36
sa(dp1465
g2
S'sha'
p1466
sg4
I36
sa(dp1467
g2
S'shura'
p1468
sg4
I36
sa(dp1469
g2
S'silent'
p1470
sg4
I36
sa(dp1471
g2
S'soldier'
p1472
sg4
I36
sa(dp1473
g2
S'stance'
p1474
sg4
I36
sa(dp1475
g2
S'terror'
p1476
sg4
I36
sa(dp1477
g2
S'yushaevans'
p1478
sg4
I36
sa(dp1479
g2
S'ahl'
p1480
sg4
I34
sa(dp1481
g2
S'air'
p1482
sg4
I34
sa(dp1483
g2
S'arab'
p1484
sg4
I34
sa(dp1485
g2
S'ayn'
p1486
sg4
I34
sa(dp1487
g2
S'bases'
p1488
sg4
I34
sa(dp1489
g2
S'bashar'
p1490
sg4
I34
sa(dp1491
g2
S'battles'
p1492
sg4
I34
sa(dp1493
g2
S'baya'
p1494
sg4
I34
sa(dp1495
g2
S'body'
p1496
sg4
I34
sa(dp1497
g2
S'd'
p1498
sg4
I34
sa(dp1499
g2
S'democracy'
p1500
sg4
I34
sa(dp1501
g2
S'emirate'
p1502
sg4
I34
sa(dp1503
g2
S'exactly'
p1504
sg4
I34
sa(dp1505
g2
S'fitnah'
p1506
sg4
I34
sa(dp1507
g2
S'food'
p1508
sg4
I34
sa(dp1509
g2
S'forces'
p1510
sg4
I34
sa(dp1511
g2
S'freejahar02'
p1512
sg4
I34
sa(dp1513
g2
S'hafizzohib'
p1514
sg4
I34
sa(dp1515
g2
S'haq'
p1516
sg4
I34
sa(dp1517
g2
S'hold'
p1518
sg4
I34
sa(dp1519
g2
S'ht'
p1520
sg4
I34
sa(dp1521
g2
S'ibnenu'
p1522
sg4
I34
sa(dp1523
g2
S'kaffirs'
p1524
sg4
I34
sa(dp1525
g2
S'khwarij'
p1526
sg4
I34
sa(dp1527
g2
S'kickcoreera'
p1528
sg4
I34
sa(dp1529
g2
S'kind'
p1530
sg4
I34
sa(dp1531
g2
S'lack'
p1532
sg4
I34
sa(dp1533
g2
S'lionessgranger'
p1534
sg4
I34
sa(dp1535
g2
S'muslimprisoners'
p1536
sg4
I34
sa(dp1537
g2
S'omar'
p1538
sg4
I34
sa(dp1539
g2
S'opinion'
p1540
sg4
I34
sa(dp1541
g2
S'oppressed'
p1542
sg4
I34
sa(dp1543
g2
S'probably'
p1544
sg4
I34
sa(dp1545
g2
S'qaeda'
p1546
sg4
I34
sa(dp1547
g2
S'raise'
p1548
sg4
I34
sa(dp1549
g2
S'reportedly'
p1550
sg4
I34
sa(dp1551
g2
S'shahada'
p1552
sg4
I34
sa(dp1553
g2
S'share'
p1554
sg4
I34
sa(dp1555
g2
S'slander'
p1556
sg4
I34
sa(dp1557
g2
S'sword'
p1558
sg4
I34
sa(dp1559
g2
S'together'
p1560
sg4
I34
sa(dp1561
g2
S'tongue'
p1562
sg4
I34
sa(dp1563
g2
S'turkey'
p1564
sg4
I34
sa(dp1565
g2
S'tweet'
p1566
sg4
I34
sa(dp1567
g2
S'able'
p1568
sg4
I32
sa(dp1569
g2
S'across'
p1570
sg4
I32
sa(dp1571
g2
S'ameeranaabudua'
p1572
sg4
I32
sa(dp1573
g2
S'anotherakh'
p1574
sg4
I32
sa(dp1575
g2
S'area'
p1576
sg4
I32
sa(dp1577
g2
S'base'
p1578
sg4
I32
sa(dp1579
g2
S'bintfood'
p1580
sg4
I32
sa(dp1581
g2
S'child'
p1582
sg4
I32
sa(dp1583
g2
S'clearly'
p1584
sg4
I32
sa(dp1585
g2
S'control'
p1586
sg4
I32
sa(dp1587
g2
S'declared'
p1588
sg4
I32
sa(dp1589
g2
S'destroyed'
p1590
sg4
I32
sa(dp1591
g2
S'fact'
p1592
sg4
I32
sa(dp1593
g2
S'greater'
p1594
sg4
I32
sa(dp1595
g2
S'greatest'
p1596
sg4
I32
sa(dp1597
g2
S'habeeb'
p1598
sg4
I32
sa(dp1599
g2
S'hand'
p1600
sg4
I32
sa(dp1601
g2
S'henning'
p1602
sg4
I32
sa(dp1603
g2
S'highest'
p1604
sg4
I32
sa(dp1605
g2
S'including'
p1606
sg4
I32
sa(dp1607
g2
S'israeli'
p1608
sg4
I32
sa(dp1609
g2
S'jabz26'
p1610
sg4
I32
sa(dp1611
g2
S'khattab'
p1612
sg4
I32
sa(dp1613
g2
S'khilafahal'
p1614
sg4
I32
sa(dp1615
g2
S'kobane'
p1616
sg4
I32
sa(dp1617
g2
S'mawlaki'
p1618
sg4
I32
sa(dp1619
g2
S'meet'
p1620
sg4
I32
sa(dp1621
g2
S'merciful'
p1622
sg4
I32
sa(dp1623
g2
S'murtad'
p1624
sg4
I32
sa(dp1625
g2
S'pay'
p1626
sg4
I32
sa(dp1627
g2
S'points'
p1628
sg4
I32
sa(dp1629
g2
S'praise'
p1630
sg4
I32
sa(dp1631
g2
S'source'
p1632
sg4
I32
sa(dp1633
g2
S'tanks'
p1634
sg4
I32
sa(dp1635
g2
S'thought'
p1636
sg4
I32
sa(dp1637
g2
S'town'
p1638
sg4
I32
sa(dp1639
g2
S'ummjibreen'
p1640
sg4
I32
sa(dp1641
g2
S'usaama89'
p1642
sg4
I32
sa(dp1643
g2
S'usama'
p1644
sg4
I32
sa(dp1645
g2
S'wealth'
p1646
sg4
I32
sa(dp1647
g2
S'week'
p1648
sg4
I32
sa(dp1649
g2
S'whatever'
p1650
sg4
I32
sa(dp1651
g2
S'worship'
p1652
sg4
I32
sa(dp1653
g2
S'worth'
p1654
sg4
I32
sa(dp1655
g2
S'abubakr1924'
p1656
sg4
I30
sa(dp1657
g2
S'afghanistan'
p1658
sg4
I30
sa(dp1659
g2
S'ajaltamimi'
p1660
sg4
I30
sa(dp1661
g2
S'alshaam'
p1662
sg4
I30
sa(dp1663
g2
S'ansariyya'
p1664
sg4
I30
sa(dp1665
g2
S'anwar'
p1666
sg4
I30
sa(dp1667
g2
S'batil'
p1668
sg4
I30
sa(dp1669
g2
S'becomes'
p1670
sg4
I30
sa(dp1671
g2
S'brought'
p1672
sg4
I30
sa(dp1673
g2
S'continues'
p1674
sg4
I30
sa(dp1675
g2
S'daleel'
p1676
sg4
I30
sa(dp1677
g2
S'defeat'
p1678
sg4
I30
sa(dp1679
g2
S'disagree'
p1680
sg4
I30
sa(dp1681
g2
S'disbelievers'
p1682
sg4
I30
sa(dp1683
g2
S'drones'
p1684
sg4
I30
sa(dp1685
g2
S'established'
p1686
sg4
I30
sa(dp1687
g2
S'extreme'
p1688
sg4
I30
sa(dp1689
g2
S'face'
p1690
sg4
I30
sa(dp1691
g2
S'flashpointintel'
p1692
sg4
I30
sa(dp1693
g2
S'followers'
p1694
sg4
I30
sa(dp1695
g2
S'force'
p1696
sg4
I30
sa(dp1697
g2
S'government'
p1698
sg4
I30
sa(dp1699
g2
S'guess'
p1700
sg4
I30
sa(dp1701
g2
S'guiltymuslim'
p1702
sg4
I30
sa(dp1703
g2
S'hasten'
p1704
sg4
I30
sa(dp1705
g2
S'high'
p1706
sg4
I30
sa(dp1707
g2
S'isisda3esh'
p1708
sg4
I30
sa(dp1709
g2
S'jtsar'
p1710
sg4
I30
sa(dp1711
g2
S'libya'
p1712
sg4
I30
sa(dp1713
g2
S'lion'
p1714
sg4
I30
sa(dp1715
g2
S'list'
p1716
sg4
I30
sa(dp1717
g2
S'maiwandafghani'
p1718
sg4
I30
sa(dp1719
g2
S'martyr'
p1720
sg4
I30
sa(dp1721
g2
S'mention'
p1722
sg4
I30
sa(dp1723
g2
S'naam'
p1724
sg4
I30
sa(dp1725
g2
S'nah'
p1726
sg4
I30
sa(dp1727
g2
S'nonsense'
p1728
sg4
I30
sa(dp1729
g2
S'number'
p1730
sg4
I30
sa(dp1731
g2
S'nusayri'
p1732
sg4
I30
sa(dp1733
g2
S'nusrah'
p1734
sg4
I30
sa(dp1735
g2
S'often'
p1736
sg4
I30
sa(dp1737
g2
S'page'
p1738
sg4
I30
sa(dp1739
g2
S'pain'
p1740
sg4
I30
sa(dp1741
g2
S'palestine'
p1742
sg4
I30
sa(dp1743
g2
S'post'
p1744
sg4
I30
sa(dp1745
g2
S'pt'
p1746
sg4
I30
sa(dp1747
g2
S'report'
p1748
sg4
I30
sa(dp1749
g2
S'scholar'
p1750
sg4
I30
sa(dp1751
g2
S'shes'
p1752
sg4
I30
sa(dp1753
g2
S'shouldnt'
p1754
sg4
I30
sa(dp1755
g2
S'sins'
p1756
sg4
I30
sa(dp1757
g2
S'sources'
p1758
sg4
I30
sa(dp1759
g2
S'strong'
p1760
sg4
I30
sa(dp1761
g2
S'sulayman'
p1762
sg4
I30
sa(dp1763
g2
S'taala'
p1764
sg4
I30
sa(dp1765
g2
S'telling'
p1766
sg4
I30
sa(dp1767
g2
S'theres'
p1768
sg4
I30
sa(dp1769
g2
S'til'
p1770
sg4
I30
sa(dp1771
g2
S'top'
p1772
sg4
I30
sa(dp1773
g2
S'ummadidas'
p1774
sg4
I30
sa(dp1775
g2
S'v'
p1776
sg4
I30
sa(dp1777
g2
S'vid'
p1778
sg4
I30
sa(dp1779
g2
S'waiting'
p1780
sg4
I30
sa(dp1781
g2
S'wasnt'
p1782
sg4
I30
sa(dp1783
g2
S'zawahiri'
p1784
sg4
I30
sa(dp1785
g2
S'aameen'
p1786
sg4
I28
sa(dp1787
g2
S'age'
p1788
sg4
I28
sa(dp1789
g2
S'akbar'
p1790
sg4
I28
sa(dp1791
g2
S'allegiance'
p1792
sg4
I28
sa(dp1793
g2
S'allies'
p1794
sg4
I28
sa(dp1795
g2
S'allowed'
p1796
sg4
I28
sa(dp1797
g2
S'aqeedah'
p1798
sg4
I28
sa(dp1799
g2
S'aqsa'
p1800
sg4
I28
sa(dp1801
g2
S'article'
p1802
sg4
I28
sa(dp1803
g2
S'asking'
p1804
sg4
I28
sa(dp1805
g2
S'believer'
p1806
sg4
I28
sa(dp1807
g2
S'bilalkareem'
p1808
sg4
I28
sa(dp1809
g2
S'bomb'
p1810
sg4
I28
sa(dp1811
g2
S'care'
p1812
sg4
I28
sa(dp1813
g2
S'carrierofsins'
p1814
sg4
I28
sa(dp1815
g2
S'claims'
p1816
sg4
I28
sa(dp1817
g2
S'crime'
p1818
sg4
I28
sa(dp1819
g2
S'crimes'
p1820
sg4
I28
sa(dp1821
g2
S'cuz'
p1822
sg4
I28
sa(dp1823
g2
S'deal'
p1824
sg4
I28
sa(dp1825
g2
S'declaration'
p1826
sg4
I28
sa(dp1827
g2
S'defending'
p1828
sg4
I28
sa(dp1829
g2
S'enterthetruthco'
p1830
sg4
I28
sa(dp1831
g2
S'fb'
p1832
sg4
I28
sa(dp1833
g2
S'general'
p1834
sg4
I28
sa(dp1835
g2
S'gives'
p1836
sg4
I28
sa(dp1837
g2
S'govt'
p1838
sg4
I28
sa(dp1839
g2
S'harith'
p1840
sg4
I28
sa(dp1841
g2
S'ignorance'
p1842
sg4
I28
sa(dp1843
g2
S'ilm'
p1844
sg4
I28
sa(dp1845
g2
S'indian'
p1846
sg4
I28
sa(dp1847
g2
S'inshaallah'
p1848
sg4
I28
sa(dp1849
g2
S'inside'
p1850
sg4
I28
sa(dp1851
g2
S'iraqi'
p1852
sg4
I28
sa(dp1853
g2
S'jihadi'
p1854
sg4
I28
sa(dp1855
g2
S'killers'
p1856
sg4
I28
sa(dp1857
g2
S'lands'
p1858
sg4
I28
sa(dp1859
g2
S'later'
p1860
sg4
I28
sa(dp1861
g2
S'low'
p1862
sg4
I28
sa(dp1863
g2
S'names'
p1864
sg4
I28
sa(dp1865
g2
S'nationalism'
p1866
sg4
I28
sa(dp1867
g2
S'nice'
p1868
sg4
I28
sa(dp1869
g2
S'obey'
p1870
sg4
I28
sa(dp1871
g2
S'patient'
p1872
sg4
I28
sa(dp1873
g2
S'power'
p1874
sg4
I28
sa(dp1875
g2
S'presents'
p1876
sg4
I28
sa(dp1877
g2
S'preserve'
p1878
sg4
I28
sa(dp1879
g2
S'prisoner'
p1880
sg4
I28
sa(dp1881
g2
S'punishment'
p1882
sg4
I28
sa(dp1883
g2
S'qatadah'
p1884
sg4
I28
sa(dp1885
g2
S'reef'
p1886
sg4
I28
sa(dp1887
g2
S'reply'
p1888
sg4
I28
sa(dp1889
g2
S'return'
p1890
sg4
I28
sa(dp1891
g2
S'retweetshaam'
p1892
sg4
I28
sa(dp1893
g2
S'run'
p1894
sg4
I28
sa(dp1895
g2
S'salafiqueen'
p1896
sg4
I28
sa(dp1897
g2
S'shame'
p1898
sg4
I28
sa(dp1899
g2
S'shaykhs'
p1900
sg4
I28
sa(dp1901
g2
S'short'
p1902
sg4
I28
sa(dp1903
g2
S'slaves'
p1904
sg4
I28
sa(dp1905
g2
S'spoke'
p1906
sg4
I28
sa(dp1907
g2
S'statements'
p1908
sg4
I28
sa(dp1909
g2
S'surah'
p1910
sg4
I28
sa(dp1911
g2
S'talks'
p1912
sg4
I28
sa(dp1913
g2
S'test'
p1914
sg4
I28
sa(dp1915
g2
S'troops'
p1916
sg4
I28
sa(dp1917
g2
S'ummwaqqas'
p1918
sg4
I28
sa(dp1919
g2
S'unless'
p1920
sg4
I28
sa(dp1921
g2
S'wait'
p1922
sg4
I28
sa(dp1923
g2
S'wanted'
p1924
sg4
I28
sa(dp1925
g2
S'watching'
p1926
sg4
I28
sa(dp1927
g2
S'worldwide'
p1928
sg4
I28
sa(dp1929
g2
S'youre'
p1930
sg4
I28
sa(dp1931
g2
S'acting'
p1932
sg4
I26
sa(dp1933
g2
S'aiding'
p1934
sg4
I26
sa(dp1935
g2
S'airstrikes'
p1936
sg4
I26
sa(dp1937
g2
S'akhy'
p1938
sg4
I26
sa(dp1939
g2
S'alwalawalbara'
p1940
sg4
I26
sa(dp1941
g2
S'animals'
p1942
sg4
I26
sa(dp1943
g2
S'benefit'
p1944
sg4
I26
sa(dp1945
g2
S'beware'
p1946
sg4
I26
sa(dp1947
g2
S'blessing'
p1948
sg4
I26
sa(dp1949
g2
S'claimed'
p1950
sg4
I26
sa(dp1951
g2
S'different'
p1952
sg4
I26
sa(dp1953
g2
S'enough'
p1954
sg4
I26
sa(dp1955
g2
S'enter'
p1956
sg4
I26
sa(dp1957
g2
S'establish'
p1958
sg4
I26
sa(dp1959
g2
S'faisal'
p1960
sg4
I26
sa(dp1961
g2
S'fast'
p1962
sg4
I26
sa(dp1963
g2
S'girl'
p1964
sg4
I26
sa(dp1965
g2
S'glad'
p1966
sg4
I26
sa(dp1967
g2
S'harm'
p1968
sg4
I26
sa(dp1969
g2
S'httpst'
p1970
sg4
I26
sa(dp1971
g2
S'islam4allxs'
p1972
sg4
I26
sa(dp1973
g2
S'jaish'
p1974
sg4
I26
sa(dp1975
g2
S'jamaat'
p1976
sg4
I26
sa(dp1977
g2
S'jawlani'
p1978
sg4
I26
sa(dp1979
g2
S'jaysh'
p1980
sg4
I26
sa(dp1981
g2
S'king'
p1982
sg4
I26
sa(dp1983
g2
S'leaving'
p1984
sg4
I26
sa(dp1985
g2
S'likes'
p1986
sg4
I26
sa(dp1987
g2
S'lives'
p1988
sg4
I26
sa(dp1989
g2
S'living'
p1990
sg4
I26
sa(dp1991
g2
S'loves'
p1992
sg4
I26
sa(dp1993
g2
S'lower'
p1994
sg4
I26
sa(dp1995
g2
S'lying'
p1996
sg4
I26
sa(dp1997
g2
S'members'
p1998
sg4
I26
sa(dp1999
g2
S'miss'
p2000
sg4
I26
sa(dp2001
g2
S'north'
p2002
sg4
I26
sa(dp2003
g2
S'operation'
p2004
sg4
I26
sa(dp2005
g2
S'outside'
p2006
sg4
I26
sa(dp2007
g2
S'paradise'
p2008
sg4
I26
sa(dp2009
g2
S'past'
p2010
sg4
I26
sa(dp2011
g2
S'prove'
p2012
sg4
I26
sa(dp2013
g2
S'ribat'
p2014
sg4
I26
sa(dp2015
g2
S'sacrifice'
p2016
sg4
I26
sa(dp2017
g2
S'security'
p2018
sg4
I26
sa(dp2019
g2
S'seem'
p2020
sg4
I26
sa(dp2021
g2
S'shaytan'
p2022
sg4
I26
sa(dp2023
g2
S'shifa'
p2024
sg4
I26
sa(dp2025
g2
S'sign'
p2026
sg4
I26
sa(dp2027
g2
S'single'
p2028
sg4
I26
sa(dp2029
g2
S'slave'
p2030
sg4
I26
sa(dp2031
g2
S'small'
p2032
sg4
I26
sa(dp2033
g2
S'sometimes'
p2034
sg4
I26
sa(dp2035
g2
S'sorry'
p2036
sg4
I26
sa(dp2037
g2
S'spreading'
p2038
sg4
I26
sa(dp2039
g2
S'thanks'
p2040
sg4
I26
sa(dp2041
g2
S'translated'
p2042
sg4
I26
sa(dp2043
g2
S'truthful'
p2044
sg4
I26
sa(dp2045
g2
S'ul'
p2046
sg4
I26
sa(dp2047
g2
S'ummahtoday'
p2048
sg4
I26
sa(dp2049
g2
S'verily'
p2050
sg4
I26
sa(dp2051
g2
S'village'
p2052
sg4
I26
sa(dp2053
g2
S'wouldnt'
p2054
sg4
I26
sa(dp2055
g2
S'y'
p2056
sg4
I26
sa(dp2057
g2
S'abudujanahmartydom'
p2058
sg4
I24
sa(dp2059
g2
S'abulooz22'
p2060
sg4
I24
sa(dp2061
g2
S'abusaalihah1'
p2062
sg4
I24
sa(dp2063
g2
S'accusations'
p2064
sg4
I24
sa(dp2065
g2
S'akh'
p2066
sg4
I24
sa(dp2067
g2
S'alliance'
p2068
sg4
I24
sa(dp2069
g2
S'apply'
p2070
sg4
I24
sa(dp2071
g2
S'azelin'
p2072
sg4
I24
sa(dp2073
g2
S'began'
p2074
sg4
I24
sa(dp2075
g2
S'brigades'
p2076
sg4
I24
sa(dp2077
g2
S'brings'
p2078
sg4
I24
sa(dp2079
g2
S'brotherhood'
p2080
sg4
I24
sa(dp2081
g2
S'bruv'
p2082
sg4
I24
sa(dp2083
g2
S'claiming'
p2084
sg4
I24
sa(dp2085
g2
S'clashes'
p2086
sg4
I24
sa(dp2087
g2
S'commander'
p2088
sg4
I24
sa(dp2089
g2
S'common'
p2090
sg4
I24
sa(dp2091
g2
S'cud'
p2092
sg4
I24
sa(dp2093
g2
S'dawah'
p2094
sg4
I24
sa(dp2095
g2
S'died'
p2096
sg4
I24
sa(dp2097
g2
S'differences'
p2098
sg4
I24
sa(dp2099
g2
S'dreyadqunaibi'
p2100
sg4
I24
sa(dp2101
g2
S'dying'
p2102
sg4
I24
sa(dp2103
g2
S'eat'
p2104
sg4
I24
sa(dp2105
g2
S'ended'
p2106
sg4
I24
sa(dp2107
g2
S'exchange'
p2108
sg4
I24
sa(dp2109
g2
S'excuse'
p2110
sg4
I24
sa(dp2111
g2
S'false'
p2112
sg4
I24
sa(dp2113
g2
S'feeling'
p2114
sg4
I24
sa(dp2115
g2
S'followed'
p2116
sg4
I24
sa(dp2117
g2
S'foreign'
p2118
sg4
I24
sa(dp2119
g2
S'goal'
p2120
sg4
I24
sa(dp2121
g2
S'guidance'
p2122
sg4
I24
sa(dp2123
g2
S'hamas'
p2124
sg4
I24
sa(dp2125
g2
S'hijrah'
p2126
sg4
I24
sa(dp2127
g2
S'house'
p2128
sg4
I24
sa(dp2129
g2
S'houthis'
p2130
sg4
I24
sa(dp2131
g2
S'however'
p2132
sg4
I24
sa(dp2133
g2
S'ie'
p2134
sg4
I24
sa(dp2135
g2
S'imprisoned'
p2136
sg4
I24
sa(dp2137
g2
S'increase'
p2138
sg4
I24
sa(dp2139
g2
S'initiative'
p2140
sg4
I24
sa(dp2141
g2
S'jihadnews2'
p2142
sg4
I24
sa(dp2143
g2
S'late'
p2144
sg4
I24
sa(dp2145
g2
S'led'
p2146
sg4
I24
sa(dp2147
g2
S'loved'
p2148
sg4
I24
sa(dp2149
g2
S'major'
p2150
sg4
I24
sa(dp2151
g2
S'marriage'
p2152
sg4
I24
sa(dp2153
g2
S'member'
p2154
sg4
I24
sa(dp2155
g2
S'morning'
p2156
sg4
I24
sa(dp2157
g2
S'muawiyaiasufian'
p2158
sg4
I24
sa(dp2159
g2
S'musa'
p2160
sg4
I24
sa(dp2161
g2
S'musacerantonio'
p2162
sg4
I24
sa(dp2163
g2
S'noorarahman'
p2164
sg4
I24
sa(dp2165
g2
S'order'
p2166
sg4
I24
sa(dp2167
g2
S'raid'
p2168
sg4
I24
sa(dp2169
g2
S'recent'
p2170
sg4
I24
sa(dp2171
g2
S'refused'
p2172
sg4
I24
sa(dp2173
g2
S'rest'
p2174
sg4
I24
sa(dp2175
g2
S'safe'
p2176
sg4
I24
sa(dp2177
g2
S'school'
p2178
sg4
I24
sa(dp2179
g2
S'second'
p2180
sg4
I24
sa(dp2181
g2
S'shot'
p2182
sg4
I24
sa(dp2183
g2
S'shows'
p2184
sg4
I24
sa(dp2185
g2
S'sis'
p2186
sg4
I24
sa(dp2187
g2
S'special'
p2188
sg4
I24
sa(dp2189
g2
S'supporting'
p2190
sg4
I24
sa(dp2191
g2
S'takfeeris'
p2192
sg4
I24
sa(dp2193
g2
S'theiraqiwitness'
p2194
sg4
I24
sa(dp2195
g2
S'thru'
p2196
sg4
I24
sa(dp2197
g2
S'ulema'
p2198
sg4
I24
sa(dp2199
g2
S'understanding'
p2200
sg4
I24
sa(dp2201
g2
S'united'
p2202
sg4
I24
sa(dp2203
g2
S'usamah'
p2204
sg4
I24
sa(dp2205
g2
S'weapons'
p2206
sg4
I24
sa(dp2207
g2
S'western'
p2208
sg4
I24
sa(dp2209
g2
S'wherever'
p2210
sg4
I24
sa(dp2211
g2
S'wilayat'
p2212
sg4
I24
sa(dp2213
g2
S'working'
p2214
sg4
I24
sa(dp2215
g2
S'young'
p2216
sg4
I24
sa(dp2217
g2
S'abujibreel'
p2218
sg4
I22
sa(dp2219
g2
S'abulqaqa'
p2220
sg4
I22
sa(dp2221
g2
S'abushuyaibhindi'
p2222
sg4
I22
sa(dp2223
g2
S'adduhaanee'
p2224
sg4
I22
sa(dp2225
g2
S'aiishak'
p2226
sg4
I22
sa(dp2227
g2
S'alfallujah'
p2228
sg4
I22
sa(dp2229
g2
S'archicivilians'
p2230
sg4
I22
sa(dp2231
g2
S'arrests'
p2232
sg4
I22
sa(dp2233
g2
S'avoid'
p2234
sg4
I22
sa(dp2235
g2
S'baby'
p2236
sg4
I22
sa(dp2237
g2
S'barakallahu'
p2238
sg4
I22
sa(dp2239
g2
S'bashars'
p2240
sg4
I22
sa(dp2241
g2
S'bit'
p2242
sg4
I22
sa(dp2243
g2
S'bombed'
p2244
sg4
I22
sa(dp2245
g2
S'civilians'
p2246
sg4
I22
sa(dp2247
g2
S'completely'
p2248
sg4
I22
sa(dp2249
g2
S'consider'
p2250
sg4
I22
sa(dp2251
g2
S'cont'
p2252
sg4
I22
sa(dp2253
g2
S'cool'
p2254
sg4
I22
sa(dp2255
g2
S'crusade'
p2256
sg4
I22
sa(dp2257
g2
S'crusader'
p2258
sg4
I22
sa(dp2259
g2
S'dangerous'
p2260
sg4
I22
sa(dp2261
g2
S'desires'
p2262
sg4
I22
sa(dp2263
g2
S'deviants'
p2264
sg4
I22
sa(dp2265
g2
S'facebook'
p2266
sg4
I22
sa(dp2267
g2
S'fake'
p2268
sg4
I22
sa(dp2269
g2
S'fasting'
p2270
sg4
I22
sa(dp2271
g2
S'father'
p2272
sg4
I22
sa(dp2273
g2
S'foot'
p2274
sg4
I22
sa(dp2275
g2
S'future'
p2276
sg4
I22
sa(dp2277
g2
S'gays'
p2278
sg4
I22
sa(dp2279
g2
S'grace'
p2280
sg4
I22
sa(dp2281
g2
S'gt'
p2282
sg4
I22
sa(dp2283
g2
S'hamza'
p2284
sg4
I22
sa(dp2285
g2
S'hatred'
p2286
sg4
I22
sa(dp2287
g2
S'helping'
p2288
sg4
I22
sa(dp2289
g2
S'heres'
p2290
sg4
I22
sa(dp2291
g2
S'hijra'
p2292
sg4
I22
sa(dp2293
g2
S'iman'
p2294
sg4
I22
sa(dp2295
g2
S'instead'
p2296
sg4
I22
sa(dp2297
g2
S'islamicfronten'
p2298
sg4
I22
sa(dp2299
g2
S'jazakhallahu'
p2300
sg4
I22
sa(dp2301
g2
S'jointhecaravan'
p2302
sg4
I22
sa(dp2303
g2
S'judgement'
p2304
sg4
I22
sa(dp2305
g2
S'kept'
p2306
sg4
I22
sa(dp2307
g2
S'kid'
p2308
sg4
I22
sa(dp2309
g2
S'language'
p2310
sg4
I22
sa(dp2311
g2
S'large'
p2312
sg4
I22
sa(dp2313
g2
S'local'
p2314
sg4
I22
sa(dp2315
g2
S'logic'
p2316
sg4
I22
sa(dp2317
g2
S'muhajir1'
p2318
sg4
I22
sa(dp2319
g2
S'munafiqeen'
p2320
sg4
I22
sa(dp2321
g2
S'mutasawwif'
p2322
sg4
I22
sa(dp2323
g2
S'nation'
p2324
sg4
I22
sa(dp2325
g2
S'needed'
p2326
sg4
I22
sa(dp2327
g2
S'perhaps'
p2328
sg4
I22
sa(dp2329
g2
S'pic'
p2330
sg4
I22
sa(dp2331
g2
S'pitstop1966'
p2332
sg4
I22
sa(dp2333
g2
S'rejected'
p2334
sg4
I22
sa(dp2335
g2
S'rejecting'
p2336
sg4
I22
sa(dp2337
g2
S'righteous'
p2338
sg4
I22
sa(dp2339
g2
S'ruling'
p2340
sg4
I22
sa(dp2341
g2
S's7bhijratain'
p2342
sg4
I22
sa(dp2343
g2
S'sabr'
p2344
sg4
I22
sa(dp2345
g2
S'seriously'
p2346
sg4
I22
sa(dp2347
g2
S'shaam'
p2348
sg4
I22
sa(dp2349
g2
S'shirk'
p2350
sg4
I22
sa(dp2351
g2
S'sides'
p2352
sg4
I22
sa(dp2353
g2
S'sitting'
p2354
sg4
I22
sa(dp2355
g2
S'speaks'
p2356
sg4
I22
sa(dp2357
g2
S'sunni'
p2358
sg4
I22
sa(dp2359
g2
S'teach'
p2360
sg4
I22
sa(dp2361
g2
S'tomorrow'
p2362
sg4
I22
sa(dp2363
g2
S'treated'
p2364
sg4
I22
sa(dp2365
g2
S'turkish'
p2366
sg4
I22
sa(dp2367
g2
S'ummmuthannah77'
p2368
sg4
I22
sa(dp2369
g2
S'within'
p2370
sg4
I22
sa(dp2371
g2
S'worse'
p2372
sg4
I22
sa(dp2373
g2
S'written'
p2374
sg4
I22
sa(dp2375
g2
S'wud'
p2376
sg4
I22
sa(dp2377
g2
S'xinxaro111'
p2378
sg4
I22
sa(dp2379
g2
S'youtube'
p2380
sg4
I22
sa(dp2381
g2
S'abdul'
p2382
sg4
I20
sa(dp2383
g2
S'abdulsalaamm'
p2384
sg4
I20
sa(dp2385
g2
S'abuaminah'
p2386
sg4
I20
sa(dp2387
g2
S'abuizzadeen1924'
p2388
sg4
I20
sa(dp2389
g2
S'action'
p2390
sg4
I20
sa(dp2391
g2
S'actions'
p2392
sg4
I20
sa(dp2393
g2
S'afghan'
p2394
sg4
I20
sa(dp2395
g2
S'alhamdulilah'
p2396
sg4
I20
sa(dp2397
g2
S'alislam'
p2398
sg4
I20
sa(dp2399
g2
S'alkutlawi'
p2400
sg4
I20
sa(dp2401
g2
S'allow'
p2402
sg4
I20
sa(dp2403
g2
S'almost'
p2404
sg4
I20
sa(dp2405
g2
S'alqaidah'
p2406
sg4
I20
sa(dp2407
g2
S'alshabaab'
p2408
sg4
I20
sa(dp2409
g2
S'americans'
p2410
sg4
I20
sa(dp2411
g2
S'arguments'
p2412
sg4
I20
sa(dp2413
g2
S'arrest'
p2414
sg4
I20
sa(dp2415
g2
S'belief'
p2416
sg4
I20
sa(dp2417
g2
S'blessings'
p2418
sg4
I20
sa(dp2419
g2
S'books'
p2420
sg4
I20
sa(dp2421
g2
S'border'
p2422
sg4
I20
sa(dp2423
g2
S'btw'
p2424
sg4
I20
sa(dp2425
g2
S'calls'
p2426
sg4
I20
sa(dp2427
g2
S'checkpoint'
p2428
sg4
I20
sa(dp2429
g2
S'clean'
p2430
sg4
I20
sa(dp2431
g2
S'cry'
p2432
sg4
I20
sa(dp2433
g2
S'daudoo'
p2434
sg4
I20
sa(dp2435
g2
S'decimate'
p2436
sg4
I20
sa(dp2437
g2
S'deir'
p2438
sg4
I20
sa(dp2439
g2
S'drone'
p2440
sg4
I20
sa(dp2441
g2
S'easily'
p2442
sg4
I20
sa(dp2443
g2
S'em'
p2444
sg4
I20
sa(dp2445
g2
S'emotional'
p2446
sg4
I20
sa(dp2447
g2
S'eternal'
p2448
sg4
I20
sa(dp2449
g2
S'exposed'
p2450
sg4
I20
sa(dp2451
g2
S'forced'
p2452
sg4
I20
sa(dp2453
g2
S'french'
p2454
sg4
I20
sa(dp2455
g2
S'fronts'
p2456
sg4
I20
sa(dp2457
g2
S'gets'
p2458
sg4
I20
sa(dp2459
g2
S'handrat'
p2460
sg4
I20
sa(dp2461
g2
S'happening'
p2462
sg4
I20
sa(dp2463
g2
S'hav'
p2464
sg4
I20
sa(dp2465
g2
S'headquarters'
p2466
sg4
I20
sa(dp2467
g2
S'heads'
p2468
sg4
I20
sa(dp2469
g2
S'idiots'
p2470
sg4
I20
sa(dp2471
g2
S'interview'
p2472
sg4
I20
sa(dp2473
g2
S'kashmiriwitness'
p2474
sg4
I20
sa(dp2475
g2
S'leadership'
p2476
sg4
I20
sa(dp2477
g2
S'letter'
p2478
sg4
I20
sa(dp2479
g2
S'loss'
p2480
sg4
I20
sa(dp2481
g2
S'masha'
p2482
sg4
I20
sa(dp2483
g2
S'memlikpasha'
p2484
sg4
I20
sa(dp2485
g2
S'misguided'
p2486
sg4
I20
sa(dp2487
g2
S'mistake'
p2488
sg4
I20
sa(dp2489
g2
S'mistakes'
p2490
sg4
I20
sa(dp2491
g2
S'moment'
p2492
sg4
I20
sa(dp2493
g2
S'mr'
p2494
sg4
I20
sa(dp2495
g2
S'net'
p2496
sg4
I20
sa(dp2497
g2
S'nifaq'
p2498
sg4
I20
sa(dp2499
g2
S'noble'
p2500
sg4
I20
sa(dp2501
g2
S'nobody'
p2502
sg4
I20
sa(dp2503
g2
S'note'
p2504
sg4
I20
sa(dp2505
g2
S'operationlibyia'
p2506
sg4
I20
sa(dp2507
g2
S'pathetic'
p2508
sg4
I20
sa(dp2509
g2
S'perfect'
p2510
sg4
I20
sa(dp2511
g2
S'picture'
p2512
sg4
I20
sa(dp2513
g2
S'play'
p2514
sg4
I20
sa(dp2515
g2
S'prayers'
p2516
sg4
I20
sa(dp2517
g2
S'pretty'
p2518
sg4
I20
sa(dp2519
g2
S'province'
p2520
sg4
I20
sa(dp2521
g2
S'questions'
p2522
sg4
I20
sa(dp2523
g2
S'rahimahullah'
p2524
sg4
I20
sa(dp2525
g2
S'raids'
p2526
sg4
I20
sa(dp2527
g2
S'reasons'
p2528
sg4
I20
sa(dp2529
g2
S'rebels'
p2530
sg4
I20
sa(dp2531
g2
S'recently'
p2532
sg4
I20
sa(dp2533
g2
S'region'
p2534
sg4
I20
sa(dp2535
g2
S'removed'
p2536
sg4
I20
sa(dp2537
g2
S'replied'
p2538
sg4
I20
sa(dp2539
g2
S'ridvan09479368'
p2540
sg4
I20
sa(dp2541
g2
S's7bhijratain3'
p2542
sg4
I20
sa(dp2543
g2
S'saeedalhalabi'
p2544
sg4
I20
sa(dp2545
g2
S'safavid'
p2546
sg4
I20
sa(dp2547
g2
S'secret'
p2548
sg4
I20
sa(dp2549
g2
S'senior'
p2550
sg4
I20
sa(dp2551
g2
S'several'
p2552
sg4
I20
sa(dp2553
g2
S'shaikh'
p2554
sg4
I20
sa(dp2555
g2
S'somali'
p2556
sg4
I20
sa(dp2557
g2
S'sound'
p2558
sg4
I20
sa(dp2559
g2
S'spokesman'
p2560
sg4
I20
sa(dp2561
g2
S'started'
p2562
sg4
I20
sa(dp2563
g2
S'subcontinent'
p2564
sg4
I20
sa(dp2565
g2
S'surely'
p2566
sg4
I20
sa(dp2567
g2
S'tasneem4321'
p2568
sg4
I20
sa(dp2569
g2
S'teaching'
p2570
sg4
I20
sa(dp2571
g2
S'tells'
p2572
sg4
I20
sa(dp2573
g2
S'terrorism'
p2574
sg4
I20
sa(dp2575
g2
S'terrorist'
p2576
sg4
I20
sa(dp2577
g2
S'theyve'
p2578
sg4
I20
sa(dp2579
g2
S'tried'
p2580
sg4
I20
sa(dp2581
g2
S'turkwitness'
p2582
sg4
I20
sa(dp2583
g2
S'ummmutaasim'
p2584
sg4
I20
sa(dp2585
g2
S'un'
p2586
sg4
I20
sa(dp2587
g2
S'wala'
p2588
sg4
I20
sa(dp2589
g2
S'walaahi'
p2590
sg4
I20
sa(dp2591
g2
S'weve'
p2592
sg4
I20
sa(dp2593
g2
S'whereas'
p2594
sg4
I20
sa(dp2595
g2
S'yazidmuawiyaa'
p2596
sg4
I20
sa(dp2597
g2
S'yemeni'
p2598
sg4
I20
sa(dp2599
g2
S'youve'
p2600
sg4
I20
sa(dp2601
g2
S'zarqawi'
p2602
sg4
I20
sa(dp2603
g2
S'zour'
p2604
sg4
I20
sa(dp2605
g2
S'4firdous'
p2606
sg4
I18
sa(dp2607
g2
S'abuizzadeen1'
p2608
sg4
I18
sa(dp2609
g2
S'abujarrahelsham'
p2610
sg4
I18
sa(dp2611
g2
S'abuturab911'
p2612
sg4
I18
sa(dp2613
g2
S'accepted'
p2614
sg4
I18
sa(dp2615
g2
S'ahmed'
p2616
sg4
I18
sa(dp2617
g2
S'alhamdullilah'
p2618
sg4
I18
sa(dp2619
g2
S'alqahtani'
p2620
sg4
I18
sa(dp2621
g2
S'alsharia'
p2622
sg4
I18
sa(dp2623
g2
S'ansari'
p2624
sg4
I18
sa(dp2625
g2
S'answered'
p2626
sg4
I18
sa(dp2627
g2
S'apostate'
p2628
sg4
I18
sa(dp2629
g2
S'aqis'
p2630
sg4
I18
sa(dp2631
g2
S'bara'
p2632
sg4
I18
sa(dp2633
g2
S'beheaded'
p2634
sg4
I18
sa(dp2635
g2
S'blow'
p2636
sg4
I18
sa(dp2637
g2
S'borders'
p2638
sg4
I18
sa(dp2639
g2
S'bukhari'
p2640
sg4
I18
sa(dp2641
g2
S'bullet'
p2642
sg4
I18
sa(dp2643
g2
S'bullets'
p2644
sg4
I18
sa(dp2645
g2
S'busy'
p2646
sg4
I18
sa(dp2647
g2
S'c'
p2648
sg4
I18
sa(dp2649
g2
S'careful'
p2650
sg4
I18
sa(dp2651
g2
S'character'
p2652
sg4
I18
sa(dp2653
g2
S'check'
p2654
sg4
I18
sa(dp2655
g2
S'christian'
p2656
sg4
I18
sa(dp2657
g2
S'confirmed'
p2658
sg4
I18
sa(dp2659
g2
S'correction'
p2660
sg4
I18
sa(dp2661
g2
S'couple'
p2662
sg4
I18
sa(dp2663
g2
S'cowardly'
p2664
sg4
I18
sa(dp2665
g2
S'dates'
p2666
sg4
I18
sa(dp2667
g2
S'defense'
p2668
sg4
I18
sa(dp2669
g2
S'details'
p2670
sg4
I18
sa(dp2671
g2
S'difficult'
p2672
sg4
I18
sa(dp2673
g2
S'disgusting'
p2674
sg4
I18
sa(dp2675
g2
S'east'
p2676
sg4
I18
sa(dp2677
g2
S'entire'
p2678
sg4
I18
sa(dp2679
g2
S'everyday'
p2680
sg4
I18
sa(dp2681
g2
S'faith'
p2682
sg4
I18
sa(dp2683
g2
S'flying'
p2684
sg4
I18
sa(dp2685
g2
S'fo'
p2686
sg4
I18
sa(dp2687
g2
S'forgiveness'
p2688
sg4
I18
sa(dp2689
g2
S'forgot'
p2690
sg4
I18
sa(dp2691
g2
S'ghazi'
p2692
sg4
I18
sa(dp2693
g2
S'god'
p2694
sg4
I18
sa(dp2695
g2
S'halal'
p2696
sg4
I18
sa(dp2697
g2
S'hani'
p2698
sg4
I18
sa(dp2699
g2
S'harsh'
p2700
sg4
I18
sa(dp2701
g2
S'hasnt'
p2702
sg4
I18
sa(dp2703
g2
S'heading'
p2704
sg4
I18
sa(dp2705
g2
S'heavy'
p2706
sg4
I18
sa(dp2707
g2
S'huge'
p2708
sg4
I18
sa(dp2709
g2
S'hurayra'
p2710
sg4
I18
sa(dp2711
g2
S'hypocrite'
p2712
sg4
I18
sa(dp2713
g2
S'ibn0mar'
p2714
sg4
I18
sa(dp2715
g2
S'infighting'
p2716
sg4
I18
sa(dp2717
g2
S'injured'
p2718
sg4
I18
sa(dp2719
g2
S'intentions'
p2720
sg4
I18
sa(dp2721
g2
S'interesting'
p2722
sg4
I18
sa(dp2723
g2
S'jabha'
p2724
sg4
I18
sa(dp2725
g2
S'jazakiallahu'
p2726
sg4
I18
sa(dp2727
g2
S'jeielamiya'
p2728
sg4
I18
sa(dp2729
g2
S'jihadis'
p2730
sg4
I18
sa(dp2731
g2
S'joining'
p2732
sg4
I18
sa(dp2733
g2
S'journey'
p2734
sg4
I18
sa(dp2735
g2
S'jundalaqsa'
p2736
sg4
I18
sa(dp2737
g2
S'k'
p2738
sg4
I18
sa(dp2739
g2
S'kashmir'
p2740
sg4
I18
sa(dp2741
g2
S'khalifah'
p2742
sg4
I18
sa(dp2743
g2
S'khwaarij'
p2744
sg4
I18
sa(dp2745
g2
S'kuffr'
p2746
sg4
I18
sa(dp2747
g2
S'kurdish'
p2748
sg4
I18
sa(dp2749
g2
S'la'
p2750
sg4
I18
sa(dp2751
g2
S'lateefah77'
p2752
sg4
I18
sa(dp2753
g2
S'liberated'
p2754
sg4
I18
sa(dp2755
g2
S'looks'
p2756
sg4
I18
sa(dp2757
g2
S'lool'
p2758
sg4
I18
sa(dp2759
g2
S'mariya'
p2760
sg4
I18
sa(dp2761
g2
S'martyrs'
p2762
sg4
I18
sa(dp2763
g2
S'meeting'
p2764
sg4
I18
sa(dp2765
g2
S'minds'
p2766
sg4
I18
sa(dp2767
g2
S'moraselallen'
p2768
sg4
I18
sa(dp2769
g2
S'mouth'
p2770
sg4
I18
sa(dp2771
g2
S'mubarak'
p2772
sg4
I18
sa(dp2773
g2
S'mujihedeen'
p2774
sg4
I18
sa(dp2775
g2
S'n3m6'
p2776
sg4
I18
sa(dp2777
g2
S'named'
p2778
sg4
I18
sa(dp2779
g2
S'nimerahmadkhan'
p2780
sg4
I18
sa(dp2781
g2
S'none'
p2782
sg4
I18
sa(dp2783
g2
S'noticed'
p2784
sg4
I18
sa(dp2785
g2
S'obligation'
p2786
sg4
I18
sa(dp2787
g2
S'online'
p2788
sg4
I18
sa(dp2789
g2
S'passed'
p2790
sg4
I18
sa(dp2791
g2
S'patelismael'
p2792
sg4
I18
sa(dp2793
g2
S'photo'
p2794
sg4
I18
sa(dp2795
g2
S'pig'
p2796
sg4
I18
sa(dp2797
g2
S'playing'
p2798
sg4
I18
sa(dp2799
g2
S'poor'
p2800
sg4
I18
sa(dp2801
g2
S'prophets'
p2802
sg4
I18
sa(dp2803
g2
S'pure'
p2804
sg4
I18
sa(dp2805
g2
S'qalamoun'
p2806
sg4
I18
sa(dp2807
g2
S'quote'
p2808
sg4
I18
sa(dp2809
g2
S'ready'
p2810
sg4
I18
sa(dp2811
g2
S'refer'
p2812
sg4
I18
sa(dp2813
g2
S'regardless'
p2814
sg4
I18
sa(dp2815
g2
S'regards'
p2816
sg4
I18
sa(dp2817
g2
S'reject'
p2818
sg4
I18
sa(dp2819
g2
S'rejects'
p2820
sg4
I18
sa(dp2821
g2
S'remind'
p2822
sg4
I18
sa(dp2823
g2
S'respond'
p2824
sg4
I18
sa(dp2825
g2
S'result'
p2826
sg4
I18
sa(dp2827
g2
S'safety'
p2828
sg4
I18
sa(dp2829
g2
S'saved'
p2830
sg4
I18
sa(dp2831
g2
S'scared'
p2832
sg4
I18
sa(dp2833
g2
S'shabiha'
p2834
sg4
I18
sa(dp2835
g2
S'sincerely'
p2836
sg4
I18
sa(dp2837
g2
S'sit'
p2838
sg4
I18
sa(dp2839
g2
S'sleep'
p2840
sg4
I18
sa(dp2841
g2
S'solution'
p2842
sg4
I18
sa(dp2843
g2
S'strivingsalafi'
p2844
sg4
I18
sa(dp2845
g2
S'suicide'
p2846
sg4
I18
sa(dp2847
g2
S'super'
p2848
sg4
I18
sa(dp2849
g2
S'syedammarh'
p2850
sg4
I18
sa(dp2851
g2
S'syrians'
p2852
sg4
I18
sa(dp2853
g2
S'talha'
p2854
sg4
I18
sa(dp2855
g2
S'taymiyyah'
p2856
sg4
I18
sa(dp2857
g2
S'testimony'
p2858
sg4
I18
sa(dp2859
g2
S'thinking'
p2860
sg4
I18
sa(dp2861
g2
S'tidings'
p2862
sg4
I18
sa(dp2863
g2
S'type'
p2864
sg4
I18
sa(dp2865
g2
S'unknown'
p2866
sg4
I18
sa(dp2867
g2
S'unsofa'
p2868
sg4
I18
sa(dp2869
g2
S'various'
p2870
sg4
I18
sa(dp2871
g2
S'view'
p2872
sg4
I18
sa(dp2873
g2
S'whilst'
p2874
sg4
I18
sa(dp2875
g2
S'wing'
p2876
sg4
I18
sa(dp2877
g2
S'worker'
p2878
sg4
I18
sa(dp2879
g2
S'worry'
p2880
sg4
I18
sa(dp2881
g2
S'worst'
p2882
sg4
I18
sa(dp2883
g2
S'wrote'
p2884
sg4
I18
sa(dp2885
g2
S'ypg'
p2886
sg4
I18
sa(dp2887
g2
S'abimaysarah'
p2888
sg4
I16
sa(dp2889
g2
S'abuaishah'
p2890
sg4
I16
sa(dp2891
g2
S'afraid'
p2892
sg4
I16
sa(dp2893
g2
S'airport'
p2894
sg4
I16
sa(dp2895
g2
S'alanhenning'
p2896
sg4
I16
sa(dp2897
g2
S'alarabiyaeng'
p2898
sg4
I16
sa(dp2899
g2
S'albaghdadi'
p2900
sg4
I16
sa(dp2901
g2
S'alnusras'
p2902
sg4
I16
sa(dp2903
g2
S'alshabab'
p2904
sg4
I16
sa(dp2905
g2
S'alshami'
p2906
sg4
I16
sa(dp2907
g2
S'any1'
p2908
sg4
I16
sa(dp2909
g2
S'assads'
p2910
sg4
I16
sa(dp2911
g2
S'assault'
p2912
sg4
I16
sa(dp2913
g2
S'attain'
p2914
sg4
I16
sa(dp2915
g2
S'barking'
p2916
sg4
I16
sa(dp2917
g2
S'bayan'
p2918
sg4
I16
sa(dp2919
g2
S'bayyah'
p2920
sg4
I16
sa(dp2921
g2
S'beginning'
p2922
sg4
I16
sa(dp2923
g2
S'behave'
p2924
sg4
I16
sa(dp2925
g2
S'besieged'
p2926
sg4
I16
sa(dp2927
g2
S'biased'
p2928
sg4
I16
sa(dp2929
g2
S'blackflagnews'
p2930
sg4
I16
sa(dp2931
g2
S'blame'
p2932
sg4
I16
sa(dp2933
g2
S'bother'
p2934
sg4
I16
sa(dp2935
g2
S'bunch'
p2936
sg4
I16
sa(dp2937
g2
S'burn'
p2938
sg4
I16
sa(dp2939
g2
S'caliph'
p2940
sg4
I16
sa(dp2941
g2
S'campaign'
p2942
sg4
I16
sa(dp2943
g2
S'camps'
p2944
sg4
I16
sa(dp2945
g2
S'capable'
p2946
sg4
I16
sa(dp2947
g2
S'charity'
p2948
sg4
I16
sa(dp2949
g2
S'chief'
p2950
sg4
I16
sa(dp2951
g2
S'closer'
p2952
sg4
I16
sa(dp2953
g2
S'compare'
p2954
sg4
I16
sa(dp2955
g2
S'condemn'
p2956
sg4
I16
sa(dp2957
g2
S'couldnt'
p2958
sg4
I16
sa(dp2959
g2
S'damascus'
p2960
sg4
I16
sa(dp2961
g2
S'dara'
p2962
sg4
I16
sa(dp2963
g2
S'declare'
p2964
sg4
I16
sa(dp2965
g2
S'destruction'
p2966
sg4
I16
sa(dp2967
g2
S'disease'
p2968
sg4
I16
sa(dp2969
g2
S'download'
p2970
sg4
I16
sa(dp2971
g2
S'dream'
p2972
sg4
I16
sa(dp2973
g2
S'duaa'
p2974
sg4
I16
sa(dp2975
g2
S'dude'
p2976
sg4
I16
sa(dp2977
g2
S'ease'
p2978
sg4
I16
sa(dp2979
g2
S'eastern'
p2980
sg4
I16
sa(dp2981
g2
S'ebola'
p2982
sg4
I16
sa(dp2983
g2
S'efforts'
p2984
sg4
I16
sa(dp2985
g2
S'eng'
p2986
sg4
I16
sa(dp2987
g2
S'entered'
p2988
sg4
I16
sa(dp2989
g2
S'eye'
p2990
sg4
I16
sa(dp2991
g2
S'fall'
p2992
sg4
I16
sa(dp2993
g2
S'fard'
p2994
sg4
I16
sa(dp2995
g2
S'fatwas'
p2996
sg4
I16
sa(dp2997
g2
S'feek'
p2998
sg4
I16
sa(dp2999
g2
S'filth'
p3000
sg4
I16
sa(dp3001
g2
S'fitn'
p3002
sg4
I16
sa(dp3003
g2
S'flags'
p3004
sg4
I16
sa(dp3005
g2
S'foley'
p3006
sg4
I16
sa(dp3007
g2
S'forever'
p3008
sg4
I16
sa(dp3009
g2
S'freed'
p3010
sg4
I16
sa(dp3011
g2
S'freedom'
p3012
sg4
I16
sa(dp3013
g2
S'frontlines'
p3014
sg4
I16
sa(dp3015
g2
S'gain'
p3016
sg4
I16
sa(dp3017
g2
S'gay'
p3018
sg4
I16
sa(dp3019
g2
S'guided'
p3020
sg4
I16
sa(dp3021
g2
S'halab'
p3022
sg4
I16
sa(dp3023
g2
S'hanifa'
p3024
sg4
I16
sa(dp3025
g2
S'hide'
p3026
sg4
I16
sa(dp3027
g2
S'hollyman76'
p3028
sg4
I16
sa(dp3029
g2
S'httpstco'
p3030
sg4
I16
sa(dp3031
g2
S'hypocrites'
p3032
sg4
I16
sa(dp3033
g2
S'images'
p3034
sg4
I16
sa(dp3035
g2
S'indianwitness'
p3036
sg4
I16
sa(dp3037
g2
S'inna'
p3038
sg4
I16
sa(dp3039
g2
S'jabhatalnusra'
p3040
sg4
I16
sa(dp3041
g2
S'jabhatannusra'
p3042
sg4
I16
sa(dp3043
g2
S'jadebolajo'
p3044
sg4
I16
sa(dp3045
g2
S'jihadists'
p3046
sg4
I16
sa(dp3047
g2
S'journalist'
p3048
sg4
I16
sa(dp3049
g2
S'judges'
p3050
sg4
I16
sa(dp3051
g2
S'junuds'
p3052
sg4
I16
sa(dp3053
g2
S'khalidmaqdisi'
p3054
sg4
I16
sa(dp3055
g2
S'khalifa'
p3056
sg4
I16
sa(dp3057
g2
S'khorasan'
p3058
sg4
I16
sa(dp3059
g2
S'kno'
p3060
sg4
I16
sa(dp3061
g2
S'label'
p3062
sg4
I16
sa(dp3063
g2
S'laden'
p3064
sg4
I16
sa(dp3065
g2
S'laugh'
p3066
sg4
I16
sa(dp3067
g2
S'leading'
p3068
sg4
I16
sa(dp3069
g2
S'lesson'
p3070
sg4
I16
sa(dp3071
g2
S'level'
p3072
sg4
I16
sa(dp3073
g2
S'limits'
p3074
sg4
I16
sa(dp3075
g2
S'line'
p3076
sg4
I16
sa(dp3077
g2
S'livingforallah'
p3078
sg4
I16
sa(dp3079
g2
S'liwa'
p3080
sg4
I16
sa(dp3081
g2
S'looking'
p3082
sg4
I16
sa(dp3083
g2
S'loool'
p3084
sg4
I16
sa(dp3085
g2
S'mass'
p3086
sg4
I16
sa(dp3087
g2
S'massacre'
p3088
sg4
I16
sa(dp3089
g2
S'missing'
p3090
sg4
I16
sa(dp3091
g2
S'moazzambegg'
p3092
sg4
I16
sa(dp3093
g2
S'move'
p3094
sg4
I16
sa(dp3095
g2
S'mum'
p3096
sg4
I16
sa(dp3097
g2
S'munafiq'
p3098
sg4
I16
sa(dp3099
g2
S'murder'
p3100
sg4
I16
sa(dp3101
g2
S'nasir'
p3102
sg4
I16
sa(dp3103
g2
S'nations'
p3104
sg4
I16
sa(dp3105
g2
S'opened'
p3106
sg4
I16
sa(dp3107
g2
S'oppression'
p3108
sg4
I16
sa(dp3109
g2
S'original'
p3110
sg4
I16
sa(dp3111
g2
S'osama'
p3112
sg4
I16
sa(dp3113
g2
S'p'
p3114
sg4
I16
sa(dp3115
g2
S'particular'
p3116
sg4
I16
sa(dp3117
g2
S'peninsula'
p3118
sg4
I16
sa(dp3119
g2
S'pics'
p3120
sg4
I16
sa(dp3121
g2
S'places'
p3122
sg4
I16
sa(dp3123
g2
S'pleasure'
p3124
sg4
I16
sa(dp3125
g2
S'plot'
p3126
sg4
I16
sa(dp3127
g2
S'positions'
p3128
sg4
I16
sa(dp3129
g2
S'powerful'
p3130
sg4
I16
sa(dp3131
g2
S'prayer'
p3132
sg4
I16
sa(dp3133
g2
S'prepare'
p3134
sg4
I16
sa(dp3135
g2
S'promise'
p3136
sg4
I16
sa(dp3137
g2
S'pvanostaeyen'
p3138
sg4
I16
sa(dp3139
g2
S'q'
p3140
sg4
I16
sa(dp3141
g2
S'rank'
p3142
sg4
I16
sa(dp3143
g2
S'raped'
p3144
sg4
I16
sa(dp3145
g2
S'reading'
p3146
sg4
I16
sa(dp3147
g2
S'realease'
p3148
sg4
I16
sa(dp3149
g2
S'remove'
p3150
sg4
I16
sa(dp3151
g2
S'repent'
p3152
sg4
I16
sa(dp3153
g2
S'reported'
p3154
sg4
I16
sa(dp3155
g2
S'sahaba'
p3156
sg4
I16
sa(dp3157
g2
S'seeking'
p3158
sg4
I16
sa(dp3159
g2
S'sense'
p3160
sg4
I16
sa(dp3161
g2
S'shahadah'
p3162
sg4
I16
sa(dp3163
g2
S'shar3i'
p3164
sg4
I16
sa(dp3165
g2
S'silence'
p3166
sg4
I16
sa(dp3167
g2
S'simple'
p3168
sg4
I16
sa(dp3169
g2
S'simply'
p3170
sg4
I16
sa(dp3171
g2
S'smh'
p3172
sg4
I16
sa(dp3173
g2
S'smiling'
p3174
sg4
I16
sa(dp3175
g2
S'socalled'
p3176
sg4
I16
sa(dp3177
g2
S'some1'
p3178
sg4
I16
sa(dp3179
g2
S'soul'
p3180
sg4
I16
sa(dp3181
g2
S'sounds'
p3182
sg4
I16
sa(dp3183
g2
S'spent'
p3184
sg4
I16
sa(dp3185
g2
S'spill'
p3186
sg4
I16
sa(dp3187
g2
S'standing'
p3188
sg4
I16
sa(dp3189
g2
S'status'
p3190
sg4
I16
sa(dp3191
g2
S'staying'
p3192
sg4
I16
sa(dp3193
g2
S'strange'
p3194
sg4
I16
sa(dp3195
g2
S'study'
p3196
sg4
I16
sa(dp3197
g2
S'stupid'
p3198
sg4
I16
sa(dp3199
g2
S'success'
p3200
sg4
I16
sa(dp3201
g2
S'suffering'
p3202
sg4
I16
sa(dp3203
g2
S'sufficient'
p3204
sg4
I16
sa(dp3205
g2
S'sukinahhussain'
p3206
sg4
I16
sa(dp3207
g2
S'surat'
p3208
sg4
I16
sa(dp3209
g2
S'suri'
p3210
sg4
I16
sa(dp3211
g2
S'surprised'
p3212
sg4
I16
sa(dp3213
g2
S'takfer'
p3214
sg4
I16
sa(dp3215
g2
S'taqwa'
p3216
sg4
I16
sa(dp3217
g2
S'targeting'
p3218
sg4
I16
sa(dp3219
g2
S'ten'
p3220
sg4
I16
sa(dp3221
g2
S'thank'
p3222
sg4
I16
sa(dp3223
g2
S'theyll'
p3224
sg4
I16
sa(dp3225
g2
S'threat'
p3226
sg4
I16
sa(dp3227
g2
S'thus'
p3228
sg4
I16
sa(dp3229
g2
S'totally'
p3230
sg4
I16
sa(dp3231
g2
S'treat'
p3232
sg4
I16
sa(dp3233
g2
S'ulwan'
p3234
sg4
I16
sa(dp3235
g2
S'ummsalama15'
p3236
sg4
I16
sa(dp3237
g2
S'ummulabeerah'
p3238
sg4
I16
sa(dp3239
g2
S'usually'
p3240
sg4
I16
sa(dp3241
g2
S'valid'
p3242
sg4
I16
sa(dp3243
g2
S'vs'
p3244
sg4
I16
sa(dp3245
g2
S'wali'
p3246
sg4
I16
sa(dp3247
g2
S'wallah'
p3248
sg4
I16
sa(dp3249
g2
S'weak'
p3250
sg4
I16
sa(dp3251
g2
S'welcome'
p3252
sg4
I16
sa(dp3253
g2
S'whether'
p3254
sg4
I16
sa(dp3255
g2
S'whims'
p3256
sg4
I16
sa(dp3257
g2
S'withdraw'
p3258
sg4
I16
sa(dp3259
g2
S'witnessing'
p3260
sg4
I16
sa(dp3261
g2
S'wonder'
p3262
sg4
I16
sa(dp3263
g2
S'='
p3264
sg4
I14
sa(dp3265
g2
S'abode'
p3266
sg4
I14
sa(dp3267
g2
S'abujamajem'
p3268
sg4
I14
sa(dp3269
g2
S'abusiqr'
p3270
sg4
I14
sa(dp3271
g2
S'abutalha001'
p3272
sg4
I14
sa(dp3273
g2
S'accounts'
p3274
sg4
I14
sa(dp3275
g2
S'activists'
p3276
sg4
I14
sa(dp3277
g2
S'advance'
p3278
sg4
I14
sa(dp3279
g2
S'advise'
p3280
sg4
I14
sa(dp3281
g2
S'affairs'
p3282
sg4
I14
sa(dp3283
g2
S'ahlul'
p3284
sg4
I14
sa(dp3285
g2
S'ahlus'
p3286
sg4
I14
sa(dp3287
g2
S'akimdarda'
p3288
sg4
I14
sa(dp3289
g2
S'alaqsa'
p3290
sg4
I14
sa(dp3291
g2
S'alim'
p3292
sg4
I14
sa(dp3293
g2
S'alongside'
p3294
sg4
I14
sa(dp3295
g2
S'alzawahiri'
p3296
sg4
I14
sa(dp3297
g2
S'amount'
p3298
sg4
I14
sa(dp3299
g2
S'anas'
p3300
sg4
I14
sa(dp3301
g2
S'announced'
p3302
sg4
I14
sa(dp3303
g2
S'anyway'
p3304
sg4
I14
sa(dp3305
g2
S'aqc'
p3306
sg4
I14
sa(dp3307
g2
S'arabian'
p3308
sg4
I14
sa(dp3309
g2
S'audio'
p3310
sg4
I14
sa(dp3311
g2
S'australia'
p3312
sg4
I14
sa(dp3313
g2
S'authority'
p3314
sg4
I14
sa(dp3315
g2
S'ayah'
p3316
sg4
I14
sa(dp3317
g2
S'aymen'
p3318
sg4
I14
sa(dp3319
g2
S'battlefields'
p3320
sg4
I14
sa(dp3321
g2
S'bayat'
p3322
sg4
I14
sa(dp3323
g2
S'beneficial'
p3324
sg4
I14
sa(dp3325
g2
S'beside'
p3326
sg4
I14
sa(dp3327
g2
S'beyond'
p3328
sg4
I14
sa(dp3329
g2
S'biithnilaah'
p3330
sg4
I14
sa(dp3331
g2
S'block'
p3332
sg4
I14
sa(dp3333
g2
S'boy'
p3334
sg4
I14
sa(dp3335
g2
S'charges'
p3336
sg4
I14
sa(dp3337
g2
S'choice'
p3338
sg4
I14
sa(dp3339
g2
S'civilian'
p3340
sg4
I14
sa(dp3341
g2
S'close'
p3342
sg4
I14
sa(dp3343
g2
S'comments'
p3344
sg4
I14
sa(dp3345
g2
S'companions'
p3346
sg4
I14
sa(dp3347
g2
S'countries'
p3348
sg4
I14
sa(dp3349
g2
S'crazy'
p3350
sg4
I14
sa(dp3351
g2
S'cut'
p3352
sg4
I14
sa(dp3353
g2
S'cute'
p3354
sg4
I14
sa(dp3355
g2
S'da'
p3356
sg4
I14
sa(dp3357
g2
S'dare'
p3358
sg4
I14
sa(dp3359
g2
S'dawlahkhilafah'
p3360
sg4
I14
sa(dp3361
g2
S'decided'
p3362
sg4
I14
sa(dp3363
g2
S'denied'
p3364
sg4
I14
sa(dp3365
g2
S'deviant'
p3366
sg4
I14
sa(dp3367
g2
S'direct'
p3368
sg4
I14
sa(dp3369
g2
S'dm'
p3370
sg4
I14
sa(dp3371
g2
S'dowla'
p3372
sg4
I14
sa(dp3373
g2
S'dozens'
p3374
sg4
I14
sa(dp3375
g2
S'dropped'
p3376
sg4
I14
sa(dp3377
g2
S'du3aa'
p3378
sg4
I14
sa(dp3379
g2
S'dumb'
p3380
sg4
I14
sa(dp3381
g2
S'earlier'
p3382
sg4
I14
sa(dp3383
g2
S'enjoy'
p3384
sg4
I14
sa(dp3385
g2
S'europe'
p3386
sg4
I14
sa(dp3387
g2
S'everybody'
p3388
sg4
I14
sa(dp3389
g2
S'everywhere'
p3390
sg4
I14
sa(dp3391
g2
S'executed'
p3392
sg4
I14
sa(dp3393
g2
S'experience'
p3394
sg4
I14
sa(dp3395
g2
S'experts'
p3396
sg4
I14
sa(dp3397
g2
S'explain'
p3398
sg4
I14
sa(dp3399
g2
S'expose'
p3400
sg4
I14
sa(dp3401
g2
S'fail'
p3402
sg4
I14
sa(dp3403
g2
S'fajr'
p3404
sg4
I14
sa(dp3405
g2
S'fallen'
p3406
sg4
I14
sa(dp3407
g2
S'falsehood'
p3408
sg4
I14
sa(dp3409
g2
S'fans'
p3410
sg4
I14
sa(dp3411
g2
S'favor'
p3412
sg4
I14
sa(dp3413
g2
S'fears'
p3414
sg4
I14
sa(dp3415
g2
S'finally'
p3416
sg4
I14
sa(dp3417
g2
S'firas'
p3418
sg4
I14
sa(dp3419
g2
S'firdaws'
p3420
sg4
I14
sa(dp3421
g2
S'focus'
p3422
sg4
I14
sa(dp3423
g2
S'form'
p3424
sg4
I14
sa(dp3425
g2
S'forth'
p3426
sg4
I14
sa(dp3427
g2
S'freemuslimprisoners'
p3428
sg4
I14
sa(dp3429
g2
S'garethruddy'
p3430
sg4
I14
sa(dp3431
g2
S'generally'
p3432
sg4
I14
sa(dp3433
g2
S'ghuluw'
p3434
sg4
I14
sa(dp3435
g2
S'granted'
p3436
sg4
I14
sa(dp3437
g2
S'guantanamo'
p3438
sg4
I14
sa(dp3439
g2
S'gun'
p3440
sg4
I14
sa(dp3441
g2
S'habib'
p3442
sg4
I14
sa(dp3443
g2
S'haliesheikh'
p3444
sg4
I14
sa(dp3445
g2
S'hara'
p3446
sg4
I14
sa(dp3447
g2
S'hardships'
p3448
sg4
I14
sa(dp3449
g2
S'haters'
p3450
sg4
I14
sa(dp3451
g2
S'hearing'
p3452
sg4
I14
sa(dp3453
g2
S'hearted'
p3454
sg4
I14
sa(dp3455
g2
S'honest'
p3456
sg4
I14
sa(dp3457
g2
S'houthi'
p3458
sg4
I14
sa(dp3459
g2
S'hurt'
p3460
sg4
I14
sa(dp3461
g2
S'ibrahim'
p3462
sg4
I14
sa(dp3463
g2
S'id'
p3464
sg4
I14
sa(dp3465
g2
S'ideology'
p3466
sg4
I14
sa(dp3467
g2
S'imaan'
p3468
sg4
I14
sa(dp3469
g2
S'individuals'
p3470
sg4
I14
sa(dp3471
g2
S'innocence'
p3472
sg4
I14
sa(dp3473
g2
S'insha'
p3474
sg4
I14
sa(dp3475
g2
S'international'
p3476
sg4
I14
sa(dp3477
g2
S'isi'
p3478
sg4
I14
sa(dp3479
g2
S'jab2victory'
p3480
sg4
I14
sa(dp3481
g2
S'jahil'
p3482
sg4
I14
sa(dp3483
g2
S'jamaah'
p3484
sg4
I14
sa(dp3485
g2
S'job'
p3486
sg4
I14
sa(dp3487
g2
S'jordan'
p3488
sg4
I14
sa(dp3489
g2
S'jubaabu'
p3490
sg4
I14
sa(dp3491
g2
S'judged'
p3492
sg4
I14
sa(dp3493
g2
S'judgment'
p3494
sg4
I14
sa(dp3495
g2
S'jzk'
p3496
sg4
I14
sa(dp3497
g2
S'kashmir4ever'
p3498
sg4
I14
sa(dp3499
g2
S'khaled'
p3500
sg4
I14
sa(dp3501
g2
S'kills'
p3502
sg4
I14
sa(dp3503
g2
S'l'
p3504
sg4
I14
sa(dp3505
g2
S'leaves'
p3506
sg4
I14
sa(dp3507
g2
S'light'
p3508
sg4
I14
sa(dp3509
g2
S'listening'
p3510
sg4
I14
sa(dp3511
g2
S'mad'
p3512
sg4
I14
sa(dp3513
g2
S'martydom'
p3514
sg4
I14
sa(dp3515
g2
S'mashallah'
p3516
sg4
I14
sa(dp3517
g2
S'masses'
p3518
sg4
I14
sa(dp3519
g2
S'mayb'
p3520
sg4
I14
sa(dp3521
g2
S'meaning'
p3522
sg4
I14
sa(dp3523
g2
S'middle'
p3524
sg4
I14
sa(dp3525
g2
S'mohammed'
p3526
sg4
I14
sa(dp3527
g2
S'mosque'
p3528
sg4
I14
sa(dp3529
g2
S'mosul'
p3530
sg4
I14
sa(dp3531
g2
S'mulla'
p3532
sg4
I14
sa(dp3533
g2
S'musab'
p3534
sg4
I14
sa(dp3535
g2
S'nonmuslims'
p3536
sg4
I14
sa(dp3537
g2
S'nt'
p3538
sg4
I14
sa(dp3539
g2
S'nusayris'
p3540
sg4
I14
sa(dp3541
g2
S'offensive'
p3542
sg4
I14
sa(dp3543
g2
S'oppressors'
p3544
sg4
I14
sa(dp3545
g2
S'pakwitness'
p3546
sg4
I14
sa(dp3547
g2
S'paladinofjihad'
p3548
sg4
I14
sa(dp3549
g2
S'personal'
p3550
sg4
I14
sa(dp3551
g2
S'perspective'
p3552
sg4
I14
sa(dp3553
g2
S'pigs'
p3554
sg4
I14
sa(dp3555
g2
S'planes'
p3556
sg4
I14
sa(dp3557
g2
S'plots'
p3558
sg4
I14
sa(dp3559
g2
S'plus'
p3560
sg4
I14
sa(dp3561
g2
S'plz'
p3562
sg4
I14
sa(dp3563
g2
S'population'
p3564
sg4
I14
sa(dp3565
g2
S'pounding'
p3566
sg4
I14
sa(dp3567
g2
S'praying'
p3568
sg4
I14
sa(dp3569
g2
S'prisons'
p3570
sg4
I14
sa(dp3571
g2
S'profile'
p3572
sg4
I14
sa(dp3573
g2
S'protection'
p3574
sg4
I14
sa(dp3575
g2
S'protests'
p3576
sg4
I14
sa(dp3577
g2
S'provide'
p3578
sg4
I14
sa(dp3579
g2
S'rafidha'
p3580
sg4
I14
sa(dp3581
g2
S'reached'
p3582
sg4
I14
sa(dp3583
g2
S'realise'
p3584
sg4
I14
sa(dp3585
g2
S'relief'
p3586
sg4
I14
sa(dp3587
g2
S'remains'
p3588
sg4
I14
sa(dp3589
g2
S'reminders'
p3590
sg4
I14
sa(dp3591
g2
S'ribaat'
p3592
sg4
I14
sa(dp3593
g2
S'road'
p3594
sg4
I14
sa(dp3595
g2
S'room'
p3596
sg4
I14
sa(dp3597
g2
S'sahawat'
p3598
sg4
I14
sa(dp3599
g2
S'salafi'
p3600
sg4
I14
sa(dp3601
g2
S'salam'
p3602
sg4
I14
sa(dp3603
g2
S'sees'
p3604
sg4
I14
sa(dp3605
g2
S'seifulmaslul123'
p3606
sg4
I14
sa(dp3607
g2
S'service'
p3608
sg4
I14
sa(dp3609
g2
S'shami'
p3610
sg4
I14
sa(dp3611
g2
S'shud'
p3612
sg4
I14
sa(dp3613
g2
S'social'
p3614
sg4
I14
sa(dp3615
g2
S'sothink'
p3616
sg4
I14
sa(dp3617
g2
S'souls'
p3618
sg4
I14
sa(dp3619
g2
S'starts'
p3620
sg4
I14
sa(dp3621
g2
S'stories'
p3622
sg4
I14
sa(dp3623
g2
S'straight'
p3624
sg4
I14
sa(dp3625
g2
S'supports'
p3626
sg4
I14
sa(dp3627
g2
S'suspended'
p3628
sg4
I14
sa(dp3629
g2
S'ta'
p3630
sg4
I14
sa(dp3631
g2
S'tahrirsy'
p3632
sg4
I14
sa(dp3633
g2
S'telat'
p3634
sg4
I14
sa(dp3635
g2
S'terrorists'
p3636
sg4
I14
sa(dp3637
g2
S'testify'
p3638
sg4
I14
sa(dp3639
g2
S'thinks'
p3640
sg4
I14
sa(dp3641
g2
S'thugs'
p3642
sg4
I14
sa(dp3643
g2
S'tradesrates'
p3644
sg4
I14
sa(dp3645
g2
S'transcript'
p3646
sg4
I14
sa(dp3647
g2
S'traveller94'
p3648
sg4
I14
sa(dp3649
g2
S'turned'
p3650
sg4
I14
sa(dp3651
g2
S'turning'
p3652
sg4
I14
sa(dp3653
g2
S'turns'
p3654
sg4
I14
sa(dp3655
g2
S'uses'
p3656
sg4
I14
sa(dp3657
g2
S'videos'
p3658
sg4
I14
sa(dp3659
g2
S'villages'
p3660
sg4
I14
sa(dp3661
g2
S'wajib'
p3662
sg4
I14
sa(dp3663
g2
S'wat'
p3664
sg4
I14
sa(dp3665
g2
S'wicked'
p3666
sg4
I14
sa(dp3667
g2
S'wit'
p3668
sg4
I14
sa(dp3669
g2
S'wives'
p3670
sg4
I14
sa(dp3671
g2
S'wout'
p3672
sg4
I14
sa(dp3673
g2
S'yea'
p3674
sg4
I14
sa(dp3675
g2
S'~'
p3676
sg4
I14
sa(dp3677
g2
S'abandoned'
p3678
sg4
I12
sa(dp3679
g2
S'abdulaziz'
p3680
sg4
I12
sa(dp3681
g2
S'abuizzadeen2'
p3682
sg4
I12
sa(dp3683
g2
S'abukhalid94'
p3684
sg4
I12
sa(dp3685
g2
S'abuqaqa'
p3686
sg4
I12
sa(dp3687
g2
S'abuubaydah333'
p3688
sg4
I12
sa(dp3689
g2
S'accuse'
p3690
sg4
I12
sa(dp3691
g2
S'adab'
p3692
sg4
I12
sa(dp3693
g2
S'advised'
p3694
sg4
I12
sa(dp3695
g2
S'agreement'
p3696
sg4
I12
sa(dp3697
g2
S'airbase'
p3698
sg4
I12
sa(dp3699
g2
S'aircraft'
p3700
sg4
I12
sa(dp3701
g2
S'alala'
p3702
sg4
I12
sa(dp3703
g2
S'alawlaki'
p3704
sg4
I12
sa(dp3705
g2
S'alfahd'
p3706
sg4
I12
sa(dp3707
g2
S'alleged'
p3708
sg4
I12
sa(dp3709
g2
S'allows'
p3710
sg4
I12
sa(dp3711
g2
S'alshinqiti'
p3712
sg4
I12
sa(dp3713
g2
S'amin'
p3714
sg4
I12
sa(dp3715
g2
S'amiralmujahida'
p3716
sg4
I12
sa(dp3717
g2
S'anbar'
p3718
sg4
I12
sa(dp3719
g2
S'angels'
p3720
sg4
I12
sa(dp3721
g2
S'anyways'
p3722
sg4
I12
sa(dp3723
g2
S'applying'
p3724
sg4
I12
sa(dp3725
g2
S'arabia'
p3726
sg4
I12
sa(dp3727
g2
S'arabs'
p3728
sg4
I12
sa(dp3729
g2
S'argue'
p3730
sg4
I12
sa(dp3731
g2
S'argument'
p3732
sg4
I12
sa(dp3733
g2
S'ash'
p3734
sg4
I12
sa(dp3735
g2
S'assahab'
p3736
sg4
I12
sa(dp3737
g2
S'astray'
p3738
sg4
I12
sa(dp3739
g2
S'attawbah'
p3740
sg4
I12
sa(dp3741
g2
S'authentic'
p3742
sg4
I12
sa(dp3743
g2
S'available'
p3744
sg4
I12
sa(dp3745
g2
S'aziz'
p3746
sg4
I12
sa(dp3747
g2
S'badly'
p3748
sg4
I12
sa(dp3749
g2
S'barakallah'
p3750
sg4
I12
sa(dp3751
g2
S'battlefield'
p3752
sg4
I12
sa(dp3753
g2
S'bbcbreaking'
p3754
sg4
I12
sa(dp3755
g2
S'bcos'
p3756
sg4
I12
sa(dp3757
g2
S'beard'
p3758
sg4
I12
sa(dp3759
g2
S'beat'
p3760
sg4
I12
sa(dp3761
g2
S'beheading'
p3762
sg4
I12
sa(dp3763
g2
S'benghazi'
p3764
sg4
I12
sa(dp3765
g2
S'bloodshed'
p3766
sg4
I12
sa(dp3767
g2
S'brave'
p3768
sg4
I12
sa(dp3769
g2
S'breakingnews'
p3770
sg4
I12
sa(dp3771
g2
S'britishvictory'
p3772
sg4
I12
sa(dp3773
g2
S'btwn'
p3774
sg4
I12
sa(dp3775
g2
S'building'
p3776
sg4
I12
sa(dp3777
g2
S'burden'
p3778
sg4
I12
sa(dp3779
g2
S'buy'
p3780
sg4
I12
sa(dp3781
g2
S'cases'
p3782
sg4
I12
sa(dp3783
g2
S'ceasefire'
p3784
sg4
I12
sa(dp3785
g2
S'certain'
p3786
sg4
I12
sa(dp3787
g2
S'chechisback'
p3788
sg4
I12
sa(dp3789
g2
S'citizen'
p3790
sg4
I12
sa(dp3791
g2
S'clip'
p3792
sg4
I12
sa(dp3793
g2
S'comfort'
p3794
sg4
I12
sa(dp3795
g2
S'committed'
p3796
sg4
I12
sa(dp3797
g2
S'concerning'
p3798
sg4
I12
sa(dp3799
g2
S'confirms'
p3800
sg4
I12
sa(dp3801
g2
S'connection'
p3802
sg4
I12
sa(dp3803
g2
S'convinced'
p3804
sg4
I12
sa(dp3805
g2
S'course'
p3806
sg4
I12
sa(dp3807
g2
S'crisis'
p3808
sg4
I12
sa(dp3809
g2
S'criticizing'
p3810
sg4
I12
sa(dp3811
g2
S'curse'
p3812
sg4
I12
sa(dp3813
g2
S'dad'
p3814
sg4
I12
sa(dp3815
g2
S'dawlayadawla'
p3816
sg4
I12
sa(dp3817
g2
S'dawn'
p3818
sg4
I12
sa(dp3819
g2
S'debate'
p3820
sg4
I12
sa(dp3821
g2
S'deep'
p3822
sg4
I12
sa(dp3823
g2
S'definition'
p3824
sg4
I12
sa(dp3825
g2
S'deleted'
p3826
sg4
I12
sa(dp3827
g2
S'deranged'
p3828
sg4
I12
sa(dp3829
g2
S'despite'
p3830
sg4
I12
sa(dp3831
g2
S'deviance'
p3832
sg4
I12
sa(dp3833
g2
S'deviated'
p3834
sg4
I12
sa(dp3835
g2
S'dies'
p3836
sg4
I12
sa(dp3837
g2
S'dint'
p3838
sg4
I12
sa(dp3839
g2
S'discussing'
p3840
sg4
I12
sa(dp3841
g2
S'double'
p3842
sg4
I12
sa(dp3843
g2
S'duaas'
p3844
sg4
I12
sa(dp3845
g2
S'dun'
p3846
sg4
I12
sa(dp3847
g2
S'dutch'
p3848
sg4
I12
sa(dp3849
g2
S'eating'
p3850
sg4
I12
sa(dp3851
g2
S'egypt'
p3852
sg4
I12
sa(dp3853
g2
S'emotions'
p3854
sg4
I12
sa(dp3855
g2
S'esteemed'
p3856
sg4
I12
sa(dp3857
g2
S'every1'
p3858
sg4
I12
sa(dp3859
g2
S'evidences'
p3860
sg4
I12
sa(dp3861
g2
S'exclusive'
p3862
sg4
I12
sa(dp3863
g2
S'extremist'
p3864
sg4
I12
sa(dp3865
g2
S'eyadqunaibi'
p3866
sg4
I12
sa(dp3867
g2
S'fair'
p3868
sg4
I12
sa(dp3869
g2
S'fais99l'
p3870
sg4
I12
sa(dp3871
g2
S'fatih'
p3872
sg4
I12
sa(dp3873
g2
S'fierce'
p3874
sg4
I12
sa(dp3875
g2
S'finished'
p3876
sg4
I12
sa(dp3877
g2
S'fitr'
p3878
sg4
I12
sa(dp3879
g2
S'follows'
p3880
sg4
I12
sa(dp3881
g2
S'fool'
p3882
sg4
I12
sa(dp3883
g2
S'fools'
p3884
sg4
I12
sa(dp3885
g2
S'forgiven'
p3886
sg4
I12
sa(dp3887
g2
S'formation'
p3888
sg4
I12
sa(dp3889
g2
S'former'
p3890
sg4
I12
sa(dp3891
g2
S'forward'
p3892
sg4
I12
sa(dp3893
g2
S'freeing'
p3894
sg4
I12
sa(dp3895
g2
S'fulan2weet'
p3896
sg4
I12
sa(dp3897
g2
S'gates'
p3898
sg4
I12
sa(dp3899
g2
S'gaze'
p3900
sg4
I12
sa(dp3901
g2
S'ghouta'
p3902
sg4
I12
sa(dp3903
g2
S'giv'
p3904
sg4
I12
sa(dp3905
g2
S'global'
p3906
sg4
I12
sa(dp3907
g2
S'goodness'
p3908
sg4
I12
sa(dp3909
g2
S'govts'
p3910
sg4
I12
sa(dp3911
g2
S'grow'
p3912
sg4
I12
sa(dp3913
g2
S'gtgt'
p3914
sg4
I12
sa(dp3915
g2
S'guns'
p3916
sg4
I12
sa(dp3917
g2
S'hafs'
p3918
sg4
I12
sa(dp3919
g2
S'half'
p3920
sg4
I12
sa(dp3921
g2
S'happiness'
p3922
sg4
I12
sa(dp3923
g2
S'hates'
p3924
sg4
I12
sa(dp3925
g2
S'heavily'
p3926
sg4
I12
sa(dp3927
g2
S'hi'
p3928
sg4
I12
sa(dp3929
g2
S'highly'
p3930
sg4
I12
sa(dp3931
g2
S'hijab'
p3932
sg4
I12
sa(dp3933
g2
S'hitler'
p3934
sg4
I12
sa(dp3935
g2
S'holding'
p3936
sg4
I12
sa(dp3937
g2
S'hoor'
p3938
sg4
I12
sa(dp3939
g2
S'hospital'
p3940
sg4
I12
sa(dp3941
g2
S'hours'
p3942
sg4
I12
sa(dp3943
g2
S'hq'
p3944
sg4
I12
sa(dp3945
g2
S'humiliation'
p3946
sg4
I12
sa(dp3947
g2
S'hundreds'
p3948
sg4
I12
sa(dp3949
g2
S'hv'
p3950
sg4
I12
sa(dp3951
g2
S'idea'
p3952
sg4
I12
sa(dp3953
g2
S'idiot'
p3954
sg4
I12
sa(dp3955
g2
S'idris'
p3956
sg4
I12
sa(dp3957
g2
S'iffocus'
p3958
sg4
I12
sa(dp3959
g2
S'injustice'
p3960
sg4
I12
sa(dp3961
g2
S'intelligence'
p3962
sg4
I12
sa(dp3963
g2
S'intention'
p3964
sg4
I12
sa(dp3965
g2
S'interpretation'
p3966
sg4
I12
sa(dp3967
g2
S'involved'
p3968
sg4
I12
sa(dp3969
g2
S'iran'
p3970
sg4
I12
sa(dp3971
g2
S'israelimoment'
p3972
sg4
I12
sa(dp3973
g2
S'israelmint'
p3974
sg4
I12
sa(dp3975
g2
S'jail'
p3976
sg4
I12
sa(dp3977
g2
S'jailed'
p3978
sg4
I12
sa(dp3979
g2
S'jamal'
p3980
sg4
I12
sa(dp3981
g2
S'jamilahanan'
p3982
sg4
I12
sa(dp3983
g2
S'jazouli'
p3984
sg4
I12
sa(dp3985
g2
S'jeremyscahill'
p3986
sg4
I12
sa(dp3987
g2
S'jhd'
p3988
sg4
I12
sa(dp3989
g2
S'jihaad'
p3990
sg4
I12
sa(dp3991
g2
S'joke'
p3992
sg4
I12
sa(dp3993
g2
S'joy'
p3994
sg4
I12
sa(dp3995
g2
S'khair'
p3996
sg4
I12
sa(dp3997
g2
S'khalidabdelrah5'
p3998
sg4
I12
sa(dp3999
g2
S'khurasan'
p4000
sg4
I12
sa(dp4001
g2
S'kidnapping'
p4002
sg4
I12
sa(dp4003
g2
S'knowing'
p4004
sg4
I12
sa(dp4005
g2
S'legitimate'
p4006
sg4
I12
sa(dp4007
g2
S'lessons'
p4008
sg4
I12
sa(dp4009
g2
S'levantenaar'
p4010
sg4
I12
sa(dp4011
g2
S'liars'
p4012
sg4
I12
sa(dp4013
g2
S'lightseries'
p4014
sg4
I12
sa(dp4015
g2
S'likely'
p4016
sg4
I12
sa(dp4017
g2
S'links'
p4018
sg4
I12
sa(dp4019
g2
S'lo'
p4020
sg4
I12
sa(dp4021
g2
S'main'
p4022
sg4
I12
sa(dp4023
g2
S'majority'
p4024
sg4
I12
sa(dp4025
g2
S'majstar7'
p4026
sg4
I12
sa(dp4027
g2
S'makkah'
p4028
sg4
I12
sa(dp4029
g2
S'malahem'
p4030
sg4
I12
sa(dp4031
g2
S'massive'
p4032
sg4
I12
sa(dp4033
g2
S'mate'
p4034
sg4
I12
sa(dp4035
g2
S'meant'
p4036
sg4
I12
sa(dp4037
g2
S'militias'
p4038
sg4
I12
sa(dp4039
g2
S'millions'
p4040
sg4
I12
sa(dp4041
g2
S'misguidance'
p4042
sg4
I12
sa(dp4043
g2
S'muhammed'
p4044
sg4
I12
sa(dp4045
g2
S'muslimeen'
p4046
sg4
I12
sa(dp4047
g2
S'mutah'
p4048
sg4
I12
sa(dp4049
g2
S'muwahideenmedia'
p4050
sg4
I12
sa(dp4051
g2
S'nature'
p4052
sg4
I12
sa(dp4053
g2
S'necks'
p4054
sg4
I12
sa(dp4055
g2
S'nights'
p4056
sg4
I12
sa(dp4057
g2
S'notice'
p4058
sg4
I12
sa(dp4059
g2
S'nuns'
p4060
sg4
I12
sa(dp4061
g2
S'obedient'
p4062
sg4
I12
sa(dp4063
g2
S'obligatory'
p4064
sg4
I12
sa(dp4065
g2
S'obviously'
p4066
sg4
I12
sa(dp4067
g2
S'officer'
p4068
sg4
I12
sa(dp4069
g2
S'op'
p4070
sg4
I12
sa(dp4071
g2
S'operations'
p4072
sg4
I12
sa(dp4073
g2
S'organization'
p4074
sg4
I12
sa(dp4075
g2
S'pakistan'
p4076
sg4
I12
sa(dp4077
g2
S'pass'
p4078
sg4
I12
sa(dp4079
g2
S'permission'
p4080
sg4
I12
sa(dp4081
g2
S'pictures'
p4082
sg4
I12
sa(dp4083
g2
S'placed'
p4084
sg4
I12
sa(dp4085
g2
S'plan'
p4086
sg4
I12
sa(dp4087
g2
S'plane'
p4088
sg4
I12
sa(dp4089
g2
S'pledged'
p4090
sg4
I12
sa(dp4091
g2
S'possible'
p4092
sg4
I12
sa(dp4093
g2
S'prevent'
p4094
sg4
I12
sa(dp4095
g2
S'principles'
p4096
sg4
I12
sa(dp4097
g2
S'pro'
p4098
sg4
I12
sa(dp4099
g2
S'problems'
p4100
sg4
I12
sa(dp4101
g2
S'public'
p4102
sg4
I12
sa(dp4103
g2
S'puts'
p4104
sg4
I12
sa(dp4105
g2
S'putting'
p4106
sg4
I12
sa(dp4107
g2
S'qaatil23'
p4108
sg4
I12
sa(dp4109
g2
S'qaedatnusra'
p4110
sg4
I12
sa(dp4111
g2
S'qiyam'
p4112
sg4
I12
sa(dp4113
g2
S'quite'
p4114
sg4
I12
sa(dp4115
g2
S'random'
p4116
sg4
I12
sa(dp4117
g2
S'rape'
p4118
sg4
I12
sa(dp4119
g2
S'raqqa'
p4120
sg4
I12
sa(dp4121
g2
S'rawdahabdi'
p4122
sg4
I12
sa(dp4123
g2
S'rebel'
p4124
sg4
I12
sa(dp4125
g2
S'recognize'
p4126
sg4
I12
sa(dp4127
g2
S'refuse'
p4128
sg4
I12
sa(dp4129
g2
S'regret'
p4130
sg4
I12
sa(dp4131
g2
S'relax'
p4132
sg4
I12
sa(dp4133
g2
S'renewing'
p4134
sg4
I12
sa(dp4135
g2
S'repeat'
p4136
sg4
I12
sa(dp4137
g2
S'repentance'
p4138
sg4
I12
sa(dp4139
g2
S'response'
p4140
sg4
I12
sa(dp4141
g2
S'responsibility'
p4142
sg4
I12
sa(dp4143
g2
S'revenge'
p4144
sg4
I12
sa(dp4145
g2
S'rewards'
p4146
sg4
I12
sa(dp4147
g2
S'role'
p4148
sg4
I12
sa(dp4149
g2
S'rules'
p4150
sg4
I12
sa(dp4151
g2
S'rural'
p4152
sg4
I12
sa(dp4153
g2
S'sacrificed'
p4154
sg4
I12
sa(dp4155
g2
S'salafis'
p4156
sg4
I12
sa(dp4157
g2
S'salah'
p4158
sg4
I12
sa(dp4159
g2
S'sdoomie'
p4160
sg4
I12
sa(dp4161
g2
S'sends'
p4162
sg4
I12
sa(dp4163
g2
S'servants'
p4164
sg4
I12
sa(dp4165
g2
S'set'
p4166
sg4
I12
sa(dp4167
g2
S'shaheed'
p4168
sg4
I12
sa(dp4169
g2
S'shaytaan'
p4170
sg4
I12
sa(dp4171
g2
S'siege'
p4172
sg4
I12
sa(dp4173
g2
S'sight'
p4174
sg4
I12
sa(dp4175
g2
S'silly'
p4176
sg4
I12
sa(dp4177
g2
S'simplyikran'
p4178
sg4
I12
sa(dp4179
g2
S'sincerity'
p4180
sg4
I12
sa(dp4181
g2
S'sky'
p4182
sg4
I12
sa(dp4183
g2
S'slaughtered'
p4184
sg4
I12
sa(dp4185
g2
S'society'
p4186
sg4
I12
sa(dp4187
g2
S'spend'
p4188
sg4
I12
sa(dp4189
g2
S'split'
p4190
sg4
I12
sa(dp4191
g2
S'standards'
p4192
sg4
I12
sa(dp4193
g2
S'step'
p4194
sg4
I12
sa(dp4195
g2
S'stood'
p4196
sg4
I12
sa(dp4197
g2
S'streets'
p4198
sg4
I12
sa(dp4199
g2
S'strive'
p4200
sg4
I12
sa(dp4201
g2
S'student'
p4202
sg4
I12
sa(dp4203
g2
S'students'
p4204
sg4
I12
sa(dp4205
g2
S'subject'
p4206
sg4
I12
sa(dp4207
g2
S'sufyan'
p4208
sg4
I12
sa(dp4209
g2
S'summary'
p4210
sg4
I12
sa(dp4211
g2
S'superior'
p4212
sg4
I12
sa(dp4213
g2
S'supported'
p4214
sg4
I12
sa(dp4215
g2
S'supporter'
p4216
sg4
I12
sa(dp4217
g2
S'suprised'
p4218
sg4
I12
sa(dp4219
g2
S'taghout'
p4220
sg4
I12
sa(dp4221
g2
S'tamhussein'
p4222
sg4
I12
sa(dp4223
g2
S'tawageet'
p4224
sg4
I12
sa(dp4225
g2
S'tawagheet'
p4226
sg4
I12
sa(dp4227
g2
S'tawbah'
p4228
sg4
I12
sa(dp4229
g2
S'team'
p4230
sg4
I12
sa(dp4231
g2
S'terms'
p4232
sg4
I12
sa(dp4233
g2
S'tests'
p4234
sg4
I12
sa(dp4235
g2
S'thinkagaindos'
p4236
sg4
I12
sa(dp4237
g2
S'tho'
p4238
sg4
I12
sa(dp4239
g2
S'throw'
p4240
sg4
I12
sa(dp4241
g2
S'ticket'
p4242
sg4
I12
sa(dp4243
g2
S'total'
p4244
sg4
I12
sa(dp4245
g2
S'translations'
p4246
sg4
I12
sa(dp4247
g2
S'trials'
p4248
sg4
I12
sa(dp4249
g2
S'tribes'
p4250
sg4
I12
sa(dp4251
g2
S'trip'
p4252
sg4
I12
sa(dp4253
g2
S'ttp'
p4254
sg4
I12
sa(dp4255
g2
S'tunisia'
p4256
sg4
I12
sa(dp4257
g2
S'tweeted'
p4258
sg4
I12
sa(dp4259
g2
S'version'
p4260
sg4
I12
sa(dp4261
g2
S'violence'
p4262
sg4
I12
sa(dp4263
g2
S'waging'
p4264
sg4
I12
sa(dp4265
g2
S'wake'
p4266
sg4
I12
sa(dp4267
g2
S'walk'
p4268
sg4
I12
sa(dp4269
g2
S'watched'
p4270
sg4
I12
sa(dp4271
g2
S'water'
p4272
sg4
I12
sa(dp4273
g2
S'website'
p4274
sg4
I12
sa(dp4275
g2
S'weeks'
p4276
sg4
I12
sa(dp4277
g2
S'whenever'
p4278
sg4
I12
sa(dp4279
g2
S'wil'
p4280
sg4
I12
sa(dp4281
g2
S'wilaayat'
p4282
sg4
I12
sa(dp4283
g2
S'wise'
p4284
sg4
I12
sa(dp4285
g2
S'witnesses'
p4286
sg4
I12
sa(dp4287
g2
S'worried'
p4288
sg4
I12
sa(dp4289
g2
S'write'
p4290
sg4
I12
sa(dp4291
g2
S'yall'
p4292
sg4
I12
sa(dp4293
g2
S'zaidbenjamin'
p4294
sg4
I12
sa(dp4295
g2
S'zone'
p4296
sg4
I12
sa(dp4297
g2
S'zubayr'
p4298
sg4
I12
sa(dp4299
g2
S'2horses4cups'
p4300
sg4
I10
sa(dp4301
g2
S'aalaseer'
p4302
sg4
I10
sa(dp4303
g2
S'abbas'
p4304
sg4
I10
sa(dp4305
g2
S'abboud'
p4306
sg4
I10
sa(dp4307
g2
S'abdulrahman'
p4308
sg4
I10
sa(dp4309
g2
S'absence'
p4310
sg4
I10
sa(dp4311
g2
S'absolute'
p4312
sg4
I10
sa(dp4313
g2
S'abubaraafb'
p4314
sg4
I10
sa(dp4315
g2
S'abushujahathary'
p4316
sg4
I10
sa(dp4317
g2
S'abuumar8246'
p4318
sg4
I10
sa(dp4319
g2
S'abuyehyaalsham'
p4320
sg4
I10
sa(dp4321
g2
S'abuyehyaalshami'
p4322
sg4
I10
sa(dp4323
g2
S'accused'
p4324
sg4
I10
sa(dp4325
g2
S'achieve'
p4326
sg4
I10
sa(dp4327
g2
S'addressed'
p4328
sg4
I10
sa(dp4329
g2
S'addressing'
p4330
sg4
I10
sa(dp4331
g2
S'advancing'
p4332
sg4
I10
sa(dp4333
g2
S'ah'
p4334
sg4
I10
sa(dp4335
g2
S'ahead'
p4336
sg4
I10
sa(dp4337
g2
S'aide'
p4338
sg4
I10
sa(dp4339
g2
S'aids'
p4340
sg4
I10
sa(dp4341
g2
S'ajelive'
p4342
sg4
I10
sa(dp4343
g2
S'alamriki'
p4344
sg4
I10
sa(dp4345
g2
S'alansarialjanab'
p4346
sg4
I10
sa(dp4347
g2
S'albasirajn'
p4348
sg4
I10
sa(dp4349
g2
S'algirish10'
p4350
sg4
I10
sa(dp4351
g2
S'allahswt'
p4352
sg4
I10
sa(dp4353
g2
S'allahumustan'
p4354
sg4
I10
sa(dp4355
g2
S'allibi'
p4356
sg4
I10
sa(dp4357
g2
S'almuhajir'
p4358
sg4
I10
sa(dp4359
g2
S'alsuri'
p4360
sg4
I10
sa(dp4361
g2
S'amen'
p4362
sg4
I10
sa(dp4363
g2
S'amr'
p4364
sg4
I10
sa(dp4365
g2
S'antipkk1'
p4366
sg4
I10
sa(dp4367
g2
S'appointed'
p4368
sg4
I10
sa(dp4369
g2
S'armies'
p4370
sg4
I10
sa(dp4371
g2
S'arms'
p4372
sg4
I10
sa(dp4373
g2
S'assibai'
p4374
sg4
I10
sa(dp4375
g2
S'assuri'
p4376
sg4
I10
sa(dp4377
g2
S'atleast'
p4378
sg4
I10
sa(dp4379
g2
S'auspol'
p4380
sg4
I10
sa(dp4381
g2
S'authobillah'
p4382
sg4
I10
sa(dp4383
g2
S'awareness'
p4384
sg4
I10
sa(dp4385
g2
S'awlaki'
p4386
sg4
I10
sa(dp4387
g2
S'badr'
p4388
sg4
I10
sa(dp4389
g2
S'baghdadis'
p4390
sg4
I10
sa(dp4391
g2
S'barbarians'
p4392
sg4
I10
sa(dp4393
g2
S'basis'
p4394
sg4
I10
sa(dp4395
g2
S'bathiest'
p4396
sg4
I10
sa(dp4397
g2
S'battleofbadralshamalkubra'
p4398
sg4
I10
sa(dp4399
g2
S'bcoz'
p4400
sg4
I10
sa(dp4401
g2
S'beautsinners'
p4402
sg4
I10
sa(dp4403
g2
S'begg'
p4404
sg4
I10
sa(dp4405
g2
S'begin'
p4406
sg4
I10
sa(dp4407
g2
S'behalf'
p4408
sg4
I10
sa(dp4409
g2
S'behaving'
p4410
sg4
I10
sa(dp4411
g2
S'belalmd12'
p4412
sg4
I10
sa(dp4413
g2
S'believed'
p4414
sg4
I10
sa(dp4415
g2
S'betrayal'
p4416
sg4
I10
sa(dp4417
g2
S'biithnilah'
p4418
sg4
I10
sa(dp4419
g2
S'bits'
p4420
sg4
I10
sa(dp4421
g2
S'black'
p4422
sg4
I10
sa(dp4423
g2
S'blackflagworld'
p4424
sg4
I10
sa(dp4425
g2
S'blamers'
p4426
sg4
I10
sa(dp4427
g2
S'blocked'
p4428
sg4
I10
sa(dp4429
g2
S'bomber'
p4430
sg4
I10
sa(dp4431
g2
S'booty'
p4432
sg4
I10
sa(dp4433
g2
S'branch'
p4434
sg4
I10
sa(dp4435
g2
S'cancer'
p4436
sg4
I10
sa(dp4437
g2
S'cares'
p4438
sg4
I10
sa(dp4439
g2
S'carried'
p4440
sg4
I10
sa(dp4441
g2
S'carry'
p4442
sg4
I10
sa(dp4443
g2
S'catch'
p4444
sg4
I10
sa(dp4445
g2
S'caucasus'
p4446
sg4
I10
sa(dp4447
g2
S'celebrating'
p4448
sg4
I10
sa(dp4449
g2
S'certainly'
p4450
sg4
I10
sa(dp4451
g2
S'closed'
p4452
sg4
I10
sa(dp4453
g2
S'com'
p4454
sg4
I10
sa(dp4455
g2
S'commands'
p4456
sg4
I10
sa(dp4457
g2
S'commit'
p4458
sg4
I10
sa(dp4459
g2
S'constantly'
p4460
sg4
I10
sa(dp4461
g2
S'cops'
p4462
sg4
I10
sa(dp4463
g2
S'council'
p4464
sg4
I10
sa(dp4465
g2
S'countryside'
p4466
sg4
I10
sa(dp4467
g2
S'cousin'
p4468
sg4
I10
sa(dp4469
g2
S'cover'
p4470
sg4
I10
sa(dp4471
g2
S'coward'
p4472
sg4
I10
sa(dp4473
g2
S'created'
p4474
sg4
I10
sa(dp4475
g2
S'crusaders'
p4476
sg4
I10
sa(dp4477
g2
S'crying'
p4478
sg4
I10
sa(dp4479
g2
S'culture'
p4480
sg4
I10
sa(dp4481
g2
S'cus'
p4482
sg4
I10
sa(dp4483
g2
S'dealing'
p4484
sg4
I10
sa(dp4485
g2
S'deaths'
p4486
sg4
I10
sa(dp4487
g2
S'decide'
p4488
sg4
I10
sa(dp4489
g2
S'declaring'
p4490
sg4
I10
sa(dp4491
g2
S'deed'
p4492
sg4
I10
sa(dp4493
g2
S'defected'
p4494
sg4
I10
sa(dp4495
g2
S'describe'
p4496
sg4
I10
sa(dp4497
g2
S'deserve'
p4498
sg4
I10
sa(dp4499
g2
S'differentiate'
p4500
sg4
I10
sa(dp4501
g2
S'din'
p4502
sg4
I10
sa(dp4503
g2
S'discussion'
p4504
sg4
I10
sa(dp4505
g2
S'dislike'
p4506
sg4
I10
sa(dp4507
g2
S'documentary'
p4508
sg4
I10
sa(dp4509
g2
S'donate'
p4510
sg4
I10
sa(dp4511
g2
S'dujanah'
p4512
sg4
I10
sa(dp4513
g2
S'duty'
p4514
sg4
I10
sa(dp4515
g2
S'e'
p4516
sg4
I10
sa(dp4517
g2
S'early'
p4518
sg4
I10
sa(dp4519
g2
S'egyptian'
p4520
sg4
I10
sa(dp4521
g2
S'ehsanullahihsan'
p4522
sg4
I10
sa(dp4523
g2
S'ejmalrai'
p4524
sg4
I10
sa(dp4525
g2
S'enmity'
p4526
sg4
I10
sa(dp4527
g2
S'erdogan'
p4528
sg4
I10
sa(dp4529
g2
S'establishment'
p4530
sg4
I10
sa(dp4531
g2
S'events'
p4532
sg4
I10
sa(dp4533
g2
S'exposing'
p4534
sg4
I10
sa(dp4535
g2
S'failed'
p4536
sg4
I10
sa(dp4537
g2
S'fatihiraqi'
p4538
sg4
I10
sa(dp4539
g2
S'feeki'
p4540
sg4
I10
sa(dp4541
g2
S'fell'
p4542
sg4
I10
sa(dp4543
g2
S'final'
p4544
sg4
I10
sa(dp4545
g2
S'firdus'
p4546
sg4
I10
sa(dp4547
g2
S'fired'
p4548
sg4
I10
sa(dp4549
g2
S'footage'
p4550
sg4
I10
sa(dp4551
g2
S'forgotten'
p4552
sg4
I10
sa(dp4553
g2
S'formed'
p4554
sg4
I10
sa(dp4555
g2
S'fruits'
p4556
sg4
I10
sa(dp4557
g2
S'fuel'
p4558
sg4
I10
sa(dp4559
g2
S'fulfill'
p4560
sg4
I10
sa(dp4561
g2
S'g'
p4562
sg4
I10
sa(dp4563
g2
S'gathering'
p4564
sg4
I10
sa(dp4565
g2
S'gems'
p4566
sg4
I10
sa(dp4567
g2
S'gift'
p4568
sg4
I10
sa(dp4569
g2
S'gimf'
p4570
sg4
I10
sa(dp4571
g2
S'glory'
p4572
sg4
I10
sa(dp4573
g2
S'grave'
p4574
sg4
I10
sa(dp4575
g2
S'gtgtgt'
p4576
sg4
I10
sa(dp4577
g2
S'guilty'
p4578
sg4
I10
sa(dp4579
g2
S'guts'
p4580
sg4
I10
sa(dp4581
g2
S'hajj'
p4582
sg4
I10
sa(dp4583
g2
S'happend'
p4584
sg4
I10
sa(dp4585
g2
S'harmful'
p4586
sg4
I10
sa(dp4587
g2
S'harvest'
p4588
sg4
I10
sa(dp4589
g2
S'hasty'
p4590
sg4
I10
sa(dp4591
g2
S'heartbreaking'
p4592
sg4
I10
sa(dp4593
g2
S'heed'
p4594
sg4
I10
sa(dp4595
g2
S'held'
p4596
sg4
I10
sa(dp4597
g2
S'helps'
p4598
sg4
I10
sa(dp4599
g2
S'hmm'
p4600
sg4
I10
sa(dp4601
g2
S'holy'
p4602
sg4
I10
sa(dp4603
g2
S'hukm'
p4604
sg4
I10
sa(dp4605
g2
S'human'
p4606
sg4
I10
sa(dp4607
g2
S'husbands'
p4608
sg4
I10
sa(dp4609
g2
S'hw'
p4610
sg4
I10
sa(dp4611
g2
S'ibnabdulsattar'
p4612
sg4
I10
sa(dp4613
g2
S'ifalasteen'
p4614
sg4
I10
sa(dp4615
g2
S'ignore'
p4616
sg4
I10
sa(dp4617
g2
S'imamshafiee'
p4618
sg4
I10
sa(dp4619
g2
S'implemented'
p4620
sg4
I10
sa(dp4621
g2
S'importance'
p4622
sg4
I10
sa(dp4623
g2
S'impossible'
p4624
sg4
I10
sa(dp4625
g2
S'inbox'
p4626
sg4
I10
sa(dp4627
g2
S'individual'
p4628
sg4
I10
sa(dp4629
g2
S'info'
p4630
sg4
I10
sa(dp4631
g2
S'inshaa'
p4632
sg4
I10
sa(dp4633
g2
S'intellectual'
p4634
sg4
I10
sa(dp4635
g2
S'intelwire'
p4636
sg4
I10
sa(dp4637
g2
S'interested'
p4638
sg4
I10
sa(dp4639
g2
S'islamicemirate'
p4640
sg4
I10
sa(dp4641
g2
S'iv'
p4642
sg4
I10
sa(dp4643
g2
S'iyaak'
p4644
sg4
I10
sa(dp4645
g2
S'j'
p4646
sg4
I10
sa(dp4647
g2
S'jealous'
p4648
sg4
I10
sa(dp4649
g2
S'john'
p4650
sg4
I10
sa(dp4651
g2
S'joint'
p4652
sg4
I10
sa(dp4653
g2
S'jundalaqsa01'
p4654
sg4
I10
sa(dp4655
g2
S'keeps'
p4656
sg4
I10
sa(dp4657
g2
S'key'
p4658
sg4
I10
sa(dp4659
g2
S'killings'
p4660
sg4
I10
sa(dp4661
g2
S'lattakia'
p4662
sg4
I10
sa(dp4663
g2
S'leads'
p4664
sg4
I10
sa(dp4665
g2
S'legit'
p4666
sg4
I10
sa(dp4667
g2
S'liar'
p4668
sg4
I10
sa(dp4669
g2
S'lied'
p4670
sg4
I10
sa(dp4671
g2
S'lik'
p4672
sg4
I10
sa(dp4673
g2
S'lines'
p4674
sg4
I10
sa(dp4675
g2
S'longer'
p4676
sg4
I10
sa(dp4677
g2
S'losing'
p4678
sg4
I10
sa(dp4679
g2
S'loud'
p4680
sg4
I10
sa(dp4681
g2
S'ma'
p4682
sg4
I10
sa(dp4683
g2
S'mahr'
p4684
sg4
I10
sa(dp4685
g2
S'makethemove'
p4686
sg4
I10
sa(dp4687
g2
S'maldives'
p4688
sg4
I10
sa(dp4689
g2
S'maldivian'
p4690
sg4
I10
sa(dp4691
g2
S'markito0171'
p4692
sg4
I10
sa(dp4693
g2
S'marrying'
p4694
sg4
I10
sa(dp4695
g2
S'mashaallah'
p4696
sg4
I10
sa(dp4697
g2
S'massacred'
p4698
sg4
I10
sa(dp4699
g2
S'massacres'
p4700
sg4
I10
sa(dp4701
g2
S'measured'
p4702
sg4
I10
sa(dp4703
g2
S'mentality'
p4704
sg4
I10
sa(dp4705
g2
S'messages'
p4706
sg4
I10
sa(dp4707
g2
S'methodology'
p4708
sg4
I10
sa(dp4709
g2
S'missile'
p4710
sg4
I10
sa(dp4711
g2
S'mocking'
p4712
sg4
I10
sa(dp4713
g2
S'mu'
p4714
sg4
I10
sa(dp4715
g2
S'muhaysini'
p4716
sg4
I10
sa(dp4717
g2
S'mujaahid'
p4718
sg4
I10
sa(dp4719
g2
S'mujahids'
p4720
sg4
I10
sa(dp4721
g2
S'murtadin'
p4722
sg4
I10
sa(dp4723
g2
S'mushrik'
p4724
sg4
I10
sa(dp4725
g2
S'n3rgid'
p4726
sg4
I10
sa(dp4727
g2
S'nadjmu'
p4728
sg4
I10
sa(dp4729
g2
S'nasiha'
p4730
sg4
I10
sa(dp4731
g2
S'nd'
p4732
sg4
I10
sa(dp4733
g2
S'nuh'
p4734
sg4
I10
sa(dp4735
g2
S'nusra4nusra'
p4736
sg4
I10
sa(dp4737
g2
S'obedience'
p4738
sg4
I10
sa(dp4739
g2
S'offer'
p4740
sg4
I10
sa(dp4741
g2
S'officialmdl'
p4742
sg4
I10
sa(dp4743
g2
S'opening'
p4744
sg4
I10
sa(dp4745
g2
S'opens'
p4746
sg4
I10
sa(dp4747
g2
S'opposes'
p4748
sg4
I10
sa(dp4749
g2
S'oppressor'
p4750
sg4
I10
sa(dp4751
g2
S'ouch'
p4752
sg4
I10
sa(dp4753
g2
S'outcome'
p4754
sg4
I10
sa(dp4755
g2
S'paid'
p4756
sg4
I10
sa(dp4757
g2
S'partner'
p4758
sg4
I10
sa(dp4759
g2
S'partners'
p4760
sg4
I10
sa(dp4761
g2
S'party'
p4762
sg4
I10
sa(dp4763
g2
S'pdf'
p4764
sg4
I10
sa(dp4765
g2
S'personally'
p4766
sg4
I10
sa(dp4767
g2
S'persons'
p4768
sg4
I10
sa(dp4769
g2
S'phone'
p4770
sg4
I10
sa(dp4771
g2
S'pick'
p4772
sg4
I10
sa(dp4773
g2
S'pieces'
p4774
sg4
I10
sa(dp4775
g2
S'played'
p4776
sg4
I10
sa(dp4777
g2
S'political'
p4778
sg4
I10
sa(dp4779
g2
S'politics'
p4780
sg4
I10
sa(dp4781
g2
S'posted'
p4782
sg4
I10
sa(dp4783
g2
S'posting'
p4784
sg4
I10
sa(dp4785
g2
S'praised'
p4786
sg4
I10
sa(dp4787
g2
S'presence'
p4788
sg4
I10
sa(dp4789
g2
S'present'
p4790
sg4
I10
sa(dp4791
g2
S'pretext'
p4792
sg4
I10
sa(dp4793
g2
S'previously'
p4794
sg4
I10
sa(dp4795
g2
S'price'
p4796
sg4
I10
sa(dp4797
g2
S'pride'
p4798
sg4
I10
sa(dp4799
g2
S'prohibits'
p4800
sg4
I10
sa(dp4801
g2
S'prois'
p4802
sg4
I10
sa(dp4803
g2
S'propose'
p4804
sg4
I10
sa(dp4805
g2
S'protector'
p4806
sg4
I10
sa(dp4807
g2
S'proud'
p4808
sg4
I10
sa(dp4809
g2
S'purpose'
p4810
sg4
I10
sa(dp4811
g2
S'race'
p4812
sg4
I10
sa(dp4813
g2
S'ramadi'
p4814
sg4
I10
sa(dp4815
g2
S'raqqah'
p4816
sg4
I10
sa(dp4817
g2
S'rasalghul321'
p4818
sg4
I10
sa(dp4819
g2
S'reap'
p4820
sg4
I10
sa(dp4821
g2
S'recall'
p4822
sg4
I10
sa(dp4823
g2
S'recite'
p4824
sg4
I10
sa(dp4825
g2
S'recommended'
p4826
sg4
I10
sa(dp4827
g2
S'red'
p4828
sg4
I10
sa(dp4829
g2
S'refuge'
p4830
sg4
I10
sa(dp4831
g2
S'reminds'
p4832
sg4
I10
sa(dp4833
g2
S'replace'
p4834
sg4
I10
sa(dp4835
g2
S'resort'
p4836
sg4
I10
sa(dp4837
g2
S'results'
p4838
sg4
I10
sa(dp4839
g2
S'reunite'
p4840
sg4
I10
sa(dp4841
g2
S'rights'
p4842
sg4
I10
sa(dp4843
g2
S'ruler'
p4844
sg4
I10
sa(dp4845
g2
S'rulers'
p4846
sg4
I10
sa(dp4847
g2
S'sadly'
p4848
sg4
I10
sa(dp4849
g2
S'salat'
p4850
sg4
I10
sa(dp4851
g2
S'samujahida'
p4852
sg4
I10
sa(dp4853
g2
S'sanaa'
p4854
sg4
I10
sa(dp4855
g2
S'sarafirth'
p4856
sg4
I10
sa(dp4857
g2
S'seekktruth'
p4858
sg4
I10
sa(dp4859
g2
S'self'
p4860
sg4
I10
sa(dp4861
g2
S'sellouts'
p4862
sg4
I10
sa(dp4863
g2
S'sending'
p4864
sg4
I10
sa(dp4865
g2
S'settle'
p4866
sg4
I10
sa(dp4867
g2
S'shabaab'
p4868
sg4
I10
sa(dp4869
g2
S'shinqiti'
p4870
sg4
I10
sa(dp4871
g2
S'shirazmaher'
p4872
sg4
I10
sa(dp4873
g2
S'shishani'
p4874
sg4
I10
sa(dp4875
g2
S'shocking'
p4876
sg4
I10
sa(dp4877
g2
S'sick'
p4878
sg4
I10
sa(dp4879
g2
S'similar'
p4880
sg4
I10
sa(dp4881
g2
S'similarly'
p4882
sg4
I10
sa(dp4883
g2
S'similiar'
p4884
sg4
I10
sa(dp4885
g2
S'slandering'
p4886
sg4
I10
sa(dp4887
g2
S'smell'
p4888
sg4
I10
sa(dp4889
g2
S'smile'
p4890
sg4
I10
sa(dp4891
g2
S'sodawn'
p4892
sg4
I10
sa(dp4893
g2
S'soft'
p4894
sg4
I10
sa(dp4895
g2
S'somemuslim'
p4896
sg4
I10
sa(dp4897
g2
S'sought'
p4898
sg4
I10
sa(dp4899
g2
S'spare'
p4900
sg4
I10
sa(dp4901
g2
S'spilled'
p4902
sg4
I10
sa(dp4903
g2
S'spilling'
p4904
sg4
I10
sa(dp4905
g2
S'stands'
p4906
sg4
I10
sa(dp4907
g2
S'stated'
p4908
sg4
I10
sa(dp4909
g2
S'states'
p4910
sg4
I10
sa(dp4911
g2
S'steadfast'
p4912
sg4
I10
sa(dp4913
g2
S'steps'
p4914
sg4
I10
sa(dp4915
g2
S'stick'
p4916
sg4
I10
sa(dp4917
g2
S'stil'
p4918
sg4
I10
sa(dp4919
g2
S'stopped'
p4920
sg4
I10
sa(dp4921
g2
S'street'
p4922
sg4
I10
sa(dp4923
g2
S'striving'
p4924
sg4
I10
sa(dp4925
g2
S'stronger'
p4926
sg4
I10
sa(dp4927
g2
S'studied'
p4928
sg4
I10
sa(dp4929
g2
S'suddenly'
p4930
sg4
I10
sa(dp4931
g2
S'sunnis'
p4932
sg4
I10
sa(dp4933
g2
S'supportshaykhahmadjibril'
p4934
sg4
I10
sa(dp4935
g2
S'supposedly'
p4936
sg4
I10
sa(dp4937
g2
S'surprise'
p4938
sg4
I10
sa(dp4939
g2
S'sweat'
p4940
sg4
I10
sa(dp4941
g2
S'swords'
p4942
sg4
I10
sa(dp4943
g2
S'sydney'
p4944
sg4
I10
sa(dp4945
g2
S'tahmid8'
p4946
sg4
I10
sa(dp4947
g2
S'takfeeri'
p4948
sg4
I10
sa(dp4949
g2
S'thousands'
p4950
sg4
I10
sa(dp4951
g2
S'thrown'
p4952
sg4
I10
sa(dp4953
g2
S'till'
p4954
sg4
I10
sa(dp4955
g2
S'tongues'
p4956
sg4
I10
sa(dp4957
g2
S'tonight'
p4958
sg4
I10
sa(dp4959
g2
S'torture'
p4960
sg4
I10
sa(dp4961
g2
S'tortured'
p4962
sg4
I10
sa(dp4963
g2
S'touch'
p4964
sg4
I10
sa(dp4965
g2
S'treatment'
p4966
sg4
I10
sa(dp4967
g2
S'tribe'
p4968
sg4
I10
sa(dp4969
g2
S'tv'
p4970
sg4
I10
sa(dp4971
g2
S'tweeting'
p4972
sg4
I10
sa(dp4973
g2
S'types'
p4974
sg4
I10
sa(dp4975
g2
S'umm'
p4976
sg4
I10
sa(dp4977
g2
S'ummemotionless'
p4978
sg4
I10
sa(dp4979
g2
S'ummumar'
p4980
sg4
I10
sa(dp4981
g2
S'unfair'
p4982
sg4
I10
sa(dp4983
g2
S'unjust'
p4984
sg4
I10
sa(dp4985
g2
S'unlike'
p4986
sg4
I10
sa(dp4987
g2
S'unseen'
p4988
sg4
I10
sa(dp4989
g2
S'usled'
p4990
sg4
I10
sa(dp4991
g2
S've'
p4992
sg4
I10
sa(dp4993
g2
S'verse'
p4994
sg4
I10
sa(dp4995
g2
S'views'
p4996
sg4
I10
sa(dp4997
g2
S'voice'
p4998
sg4
I10
sa(dp4999
g2
S'walansar'
p5000
sg4
I10
sa(dp5001
g2
S'wanderinganimal'
p5002
sg4
I10
sa(dp5003
g2
S'wannabe'
p5004
sg4
I10
sa(dp5005
g2
S'wasalam'
p5006
sg4
I10
sa(dp5007
g2
S'ways'
p5008
sg4
I10
sa(dp5009
g2
S'weapon'
p5010
sg4
I10
sa(dp5011
g2
S'wear'
p5012
sg4
I10
sa(dp5013
g2
S'weasel'
p5014
sg4
I10
sa(dp5015
g2
S'willing'
p5016
sg4
I10
sa(dp5017
g2
S'win'
p5018
sg4
I10
sa(dp5019
g2
S'witnessed'
p5020
sg4
I10
sa(dp5021
g2
S'witnesskhilafah'
p5022
sg4
I10
sa(dp5023
g2
S'wondering'
p5024
sg4
I10
sa(dp5025
g2
S'workers'
p5026
sg4
I10
sa(dp5027
g2
S'wounded'
p5028
sg4
I10
sa(dp5029
g2
S'wt'
p5030
sg4
I10
sa(dp5031
g2
S'yapping'
p5032
sg4
I10
sa(dp5033
g2
S'zahrani'
p5034
sg4
I10
sa(dp5035
g2
S'zawahirri'
p5036
sg4
I10
sa(dp5037
g2
S'911anniversary'
p5038
sg4
I8
sa(dp5039
g2
S'aafia'
p5040
sg4
I8
sa(dp5041
g2
S'abd'
p5042
sg4
I8
sa(dp5043
g2
S'abi'
p5044
sg4
I8
sa(dp5045
g2
S'ability'
p5046
sg4
I8
sa(dp5047
g2
S'abja78'
p5048
sg4
I8
sa(dp5049
g2
S'aboud'
p5050
sg4
I8
sa(dp5051
g2
S'abstain'
p5052
sg4
I8
sa(dp5053
g2
S'abuadamalamriki'
p5054
sg4
I8
sa(dp5055
g2
S'abudujanabrtany'
p5056
sg4
I8
sa(dp5057
g2
S'abudujanaisis'
p5058
sg4
I8
sa(dp5059
g2
S'abudujanamuhajr'
p5060
sg4
I8
sa(dp5061
g2
S'abuimraan'
p5062
sg4
I8
sa(dp5063
g2
S'abujabir1'
p5064
sg4
I8
sa(dp5065
g2
S'abul'
p5066
sg4
I8
sa(dp5067
g2
S'abuubaydah37'
p5068
sg4
I8
sa(dp5069
g2
S'accusing'
p5070
sg4
I8
sa(dp5071
g2
S'achievements'
p5072
sg4
I8
sa(dp5073
g2
S'adam'
p5074
sg4
I8
sa(dp5075
g2
S'add'
p5076
sg4
I8
sa(dp5077
g2
S'adnanis'
p5078
sg4
I8
sa(dp5079
g2
S'adnaniyah'
p5080
sg4
I8
sa(dp5081
g2
S'ag'
p5082
sg4
I8
sa(dp5083
g2
S'agents'
p5084
sg4
I8
sa(dp5085
g2
S'ahmedhussain'
p5086
sg4
I8
sa(dp5087
g2
S'airplanes'
p5088
sg4
I8
sa(dp5089
g2
S'ajagaza'
p5090
sg4
I8
sa(dp5091
g2
S'alalaa'
p5092
sg4
I8
sa(dp5093
g2
S'alam'
p5094
sg4
I8
sa(dp5095
g2
S'alansari'
p5096
sg4
I8
sa(dp5097
g2
S'albu'
p5098
sg4
I8
sa(dp5099
g2
S'alfujaah'
p5100
sg4
I8
sa(dp5101
g2
S'algolani'
p5102
sg4
I8
sa(dp5103
g2
S'alhabib'
p5104
sg4
I8
sa(dp5105
g2
S'alhajjaj'
p5106
sg4
I8
sa(dp5107
g2
S'alhamdillah'
p5108
sg4
I8
sa(dp5109
g2
S'alive'
p5110
sg4
I8
sa(dp5111
g2
S'aljihad'
p5112
sg4
I8
sa(dp5113
g2
S'alkataib'
p5114
sg4
I8
sa(dp5115
g2
S'alleyesonisis'
p5116
sg4
I8
sa(dp5117
g2
S'ally'
p5118
sg4
I8
sa(dp5119
g2
S'almoheisini'
p5120
sg4
I8
sa(dp5121
g2
S'almuhajirin'
p5122
sg4
I8
sa(dp5123
g2
S'almuhaysini'
p5124
sg4
I8
sa(dp5125
g2
S'alqaida'
p5126
sg4
I8
sa(dp5127
g2
S'alqayyim'
p5128
sg4
I8
sa(dp5129
g2
S'alshishani'
p5130
sg4
I8
sa(dp5131
g2
S'ambush'
p5132
sg4
I8
sa(dp5133
g2
S'ameeen'
p5134
sg4
I8
sa(dp5135
g2
S'angel'
p5136
sg4
I8
sa(dp5137
g2
S'angry'
p5138
sg4
I8
sa(dp5139
g2
S'announce'
p5140
sg4
I8
sa(dp5141
g2
S'announcment'
p5142
sg4
I8
sa(dp5143
g2
S'answering'
p5144
sg4
I8
sa(dp5145
g2
S'answers'
p5146
sg4
I8
sa(dp5147
g2
S'anti'
p5148
sg4
I8
sa(dp5149
g2
S'anywhere'
p5150
sg4
I8
sa(dp5151
g2
S'apostasy'
p5152
sg4
I8
sa(dp5153
g2
S'appreciate'
p5154
sg4
I8
sa(dp5155
g2
S'aqd'
p5156
sg4
I8
sa(dp5157
g2
S'aqs'
p5158
sg4
I8
sa(dp5159
g2
S'arafah'
p5160
sg4
I8
sa(dp5161
g2
S'arises'
p5162
sg4
I8
sa(dp5163
g2
S'arrogance'
p5164
sg4
I8
sa(dp5165
g2
S'arrogant'
p5166
sg4
I8
sa(dp5167
g2
S'assist'
p5168
sg4
I8
sa(dp5169
g2
S'aswell'
p5170
sg4
I8
sa(dp5171
g2
S'attend'
p5172
sg4
I8
sa(dp5173
g2
S'audacious'
p5174
sg4
I8
sa(dp5175
g2
S'australian'
p5176
sg4
I8
sa(dp5177
g2
S'aware'
p5178
sg4
I8
sa(dp5179
g2
S'backbiting'
p5180
sg4
I8
sa(dp5181
g2
S'baghdad'
p5182
sg4
I8
sa(dp5183
g2
S'bahrain'
p5184
sg4
I8
sa(dp5185
g2
S'bakwas'
p5186
sg4
I8
sa(dp5187
g2
S'barakah'
p5188
sg4
I8
sa(dp5189
g2
S'bark'
p5190
sg4
I8
sa(dp5191
g2
S'barrel'
p5192
sg4
I8
sa(dp5193
g2
S'basaev'
p5194
sg4
I8
sa(dp5195
g2
S'baseless'
p5196
sg4
I8
sa(dp5197
g2
S'basher'
p5198
sg4
I8
sa(dp5199
g2
S'basically'
p5200
sg4
I8
sa(dp5201
g2
S'bbc'
p5202
sg4
I8
sa(dp5203
g2
S'bbcworld'
p5204
sg4
I8
sa(dp5205
g2
S'bear'
p5206
sg4
I8
sa(dp5207
g2
S'beardotweets'
p5208
sg4
I8
sa(dp5209
g2
S'became'
p5210
sg4
I8
sa(dp5211
g2
S'beg'
p5212
sg4
I8
sa(dp5213
g2
S'beheadings'
p5214
sg4
I8
sa(dp5215
g2
S'believing'
p5216
sg4
I8
sa(dp5217
g2
S'bi'
p5218
sg4
I8
sa(dp5219
g2
S'bigger'
p5220
sg4
I8
sa(dp5221
g2
S'bilad'
p5222
sg4
I8
sa(dp5223
g2
S'biographies'
p5224
sg4
I8
sa(dp5225
g2
S'biography'
p5226
sg4
I8
sa(dp5227
g2
S'bismillah'
p5228
sg4
I8
sa(dp5229
g2
S'blaming'
p5230
sg4
I8
sa(dp5231
g2
S'bleeds'
p5232
sg4
I8
sa(dp5233
g2
S'blindly'
p5234
sg4
I8
sa(dp5235
g2
S'blowing'
p5236
sg4
I8
sa(dp5237
g2
S'board'
p5238
sg4
I8
sa(dp5239
g2
S'bombarded'
p5240
sg4
I8
sa(dp5241
g2
S'boston'
p5242
sg4
I8
sa(dp5243
g2
S'brains'
p5244
sg4
I8
sa(dp5245
g2
S'britain'
p5246
sg4
I8
sa(dp5247
g2
S'broke'
p5248
sg4
I8
sa(dp5249
g2
S'brothermuadh'
p5250
sg4
I8
sa(dp5251
g2
S'burned'
p5252
sg4
I8
sa(dp5253
g2
S'bush'
p5254
sg4
I8
sa(dp5255
g2
S'bw'
p5256
sg4
I8
sa(dp5257
g2
S'cantlie'
p5258
sg4
I8
sa(dp5259
g2
S'caravan'
p5260
sg4
I8
sa(dp5261
g2
S'cash'
p5262
sg4
I8
sa(dp5263
g2
S'casualties'
p5264
sg4
I8
sa(dp5265
g2
S'caution'
p5266
sg4
I8
sa(dp5267
g2
S'cerantonio'
p5268
sg4
I8
sa(dp5269
g2
S'chapter'
p5270
sg4
I8
sa(dp5271
g2
S'chechclearrr'
p5272
sg4
I8
sa(dp5273
g2
S'cheerleaders'
p5274
sg4
I8
sa(dp5275
g2
S'choose'
p5276
sg4
I8
sa(dp5277
g2
S'choosen'
p5278
sg4
I8
sa(dp5279
g2
S'christians'
p5280
sg4
I8
sa(dp5281
g2
S'clarification'
p5282
sg4
I8
sa(dp5283
g2
S'clarifying'
p5284
sg4
I8
sa(dp5285
g2
S'cleansing'
p5286
sg4
I8
sa(dp5287
g2
S'clothes'
p5288
sg4
I8
sa(dp5289
g2
S'colonel'
p5290
sg4
I8
sa(dp5291
g2
S'coloneljafar'
p5292
sg4
I8
sa(dp5293
g2
S'commanded'
p5294
sg4
I8
sa(dp5295
g2
S'commanders'
p5296
sg4
I8
sa(dp5297
g2
S'community'
p5298
sg4
I8
sa(dp5299
g2
S'compassion'
p5300
sg4
I8
sa(dp5301
g2
S'compound'
p5302
sg4
I8
sa(dp5303
g2
S'concerned'
p5304
sg4
I8
sa(dp5305
g2
S'condemning'
p5306
sg4
I8
sa(dp5307
g2
S'confidence'
p5308
sg4
I8
sa(dp5309
g2
S'confirm'
p5310
sg4
I8
sa(dp5311
g2
S'conquered'
p5312
sg4
I8
sa(dp5313
g2
S'conquests'
p5314
sg4
I8
sa(dp5315
g2
S'considered'
p5316
sg4
I8
sa(dp5317
g2
S'consulting'
p5318
sg4
I8
sa(dp5319
g2
S'contemplate'
p5320
sg4
I8
sa(dp5321
g2
S'convoy'
p5322
sg4
I8
sa(dp5323
g2
S'corrupt'
p5324
sg4
I8
sa(dp5325
g2
S'corruption'
p5326
sg4
I8
sa(dp5327
g2
S'coulml'
p5328
sg4
I8
sa(dp5329
g2
S'coz'
p5330
sg4
I8
sa(dp5331
g2
S'creating'
p5332
sg4
I8
sa(dp5333
g2
S'creation'
p5334
sg4
I8
sa(dp5335
g2
S'credibility'
p5336
sg4
I8
sa(dp5337
g2
S'criticised'
p5338
sg4
I8
sa(dp5339
g2
S'cruelname'
p5340
sg4
I8
sa(dp5341
g2
S'current'
p5342
sg4
I8
sa(dp5343
g2
S'daily'
p5344
sg4
I8
sa(dp5345
g2
S'damage'
p5346
sg4
I8
sa(dp5347
g2
S'daraa'
p5348
sg4
I8
sa(dp5349
g2
S'daughter'
p5350
sg4
I8
sa(dp5351
g2
S'daughters'
p5352
sg4
I8
sa(dp5353
g2
S'deadly'
p5354
sg4
I8
sa(dp5355
g2
S'decision'
p5356
sg4
I8
sa(dp5357
g2
S'dedicated'
p5358
sg4
I8
sa(dp5359
g2
S'deeply'
p5360
sg4
I8
sa(dp5361
g2
S'depends'
p5362
sg4
I8
sa(dp5363
g2
S'desire'
p5364
sg4
I8
sa(dp5365
g2
S'destroying'
p5366
sg4
I8
sa(dp5367
g2
S'detained'
p5368
sg4
I8
sa(dp5369
g2
S'determination'
p5370
sg4
I8
sa(dp5371
g2
S'devil'
p5372
sg4
I8
sa(dp5373
g2
S'dier'
p5374
sg4
I8
sa(dp5375
g2
S'disbelief'
p5376
sg4
I8
sa(dp5377
g2
S'disobey'
p5378
sg4
I8
sa(dp5379
g2
S'division'
p5380
sg4
I8
sa(dp5381
g2
S'doin'
p5382
sg4
I8
sa(dp5383
g2
S'doubts'
p5384
sg4
I8
sa(dp5385
g2
S'doula'
p5386
sg4
I8
sa(dp5387
g2
S'draw'
p5388
sg4
I8
sa(dp5389
g2
S'dressed'
p5390
sg4
I8
sa(dp5391
g2
S'drove'
p5392
sg4
I8
sa(dp5393
g2
S'du'
p5394
sg4
I8
sa(dp5395
g2
S'dujana'
p5396
sg4
I8
sa(dp5397
g2
S'dump'
p5398
sg4
I8
sa(dp5399
g2
S'dunno'
p5400
sg4
I8
sa(dp5401
g2
S'dust'
p5402
sg4
I8
sa(dp5403
g2
S'educate'
p5404
sg4
I8
sa(dp5405
g2
S'eg'
p5406
sg4
I8
sa(dp5407
g2
S'either'
p5408
sg4
I8
sa(dp5409
g2
S'england'
p5410
sg4
I8
sa(dp5411
g2
S'entitled'
p5412
sg4
I8
sa(dp5413
g2
S'equal'
p5414
sg4
I8
sa(dp5415
g2
S'era'
p5416
sg4
I8
sa(dp5417
g2
S'errors'
p5418
sg4
I8
sa(dp5419
g2
S'eventually'
p5420
sg4
I8
sa(dp5421
g2
S'ex'
p5422
sg4
I8
sa(dp5423
g2
S'exceed'
p5424
sg4
I8
sa(dp5425
g2
S'excellent'
p5426
sg4
I8
sa(dp5427
g2
S'expel'
p5428
sg4
I8
sa(dp5429
g2
S'explains'
p5430
sg4
I8
sa(dp5431
g2
S'faces'
p5432
sg4
I8
sa(dp5433
g2
S'factions'
p5434
sg4
I8
sa(dp5435
g2
S'fahd'
p5436
sg4
I8
sa(dp5437
g2
S'fairness'
p5438
sg4
I8
sa(dp5439
g2
S'farah'
p5440
sg4
I8
sa(dp5441
g2
S'fatawa'
p5442
sg4
I8
sa(dp5443
g2
S'fate'
p5444
sg4
I8
sa(dp5445
g2
S'fazlullah'
p5446
sg4
I8
sa(dp5447
g2
S'feared'
p5448
sg4
I8
sa(dp5449
g2
S'feelings'
p5450
sg4
I8
sa(dp5451
g2
S'feels'
p5452
sg4
I8
sa(dp5453
g2
S'fellow'
p5454
sg4
I8
sa(dp5455
g2
S'fi'
p5456
sg4
I8
sa(dp5457
g2
S'field'
p5458
sg4
I8
sa(dp5459
g2
S'figure'
p5460
sg4
I8
sa(dp5461
g2
S'fit'
p5462
sg4
I8
sa(dp5463
g2
S'fitan'
p5464
sg4
I8
sa(dp5465
g2
S'fix'
p5466
sg4
I8
sa(dp5467
g2
S'fled'
p5468
sg4
I8
sa(dp5469
g2
S'flee'
p5470
sg4
I8
sa(dp5471
g2
S'flesh'
p5472
sg4
I8
sa(dp5473
g2
S'fooled'
p5474
sg4
I8
sa(dp5475
g2
S'foreigners'
p5476
sg4
I8
sa(dp5477
g2
S'foundation'
p5478
sg4
I8
sa(dp5479
g2
S'france'
p5480
sg4
I8
sa(dp5481
g2
S'friday'
p5482
sg4
I8
sa(dp5483
g2
S'fun'
p5484
sg4
I8
sa(dp5485
g2
S'gathered'
p5486
sg4
I8
sa(dp5487
g2
S'generosity'
p5488
sg4
I8
sa(dp5489
g2
S'german'
p5490
sg4
I8
sa(dp5491
g2
S'getthefiqhoutofhere'
p5492
sg4
I8
sa(dp5493
g2
S'ghoutta'
p5494
sg4
I8
sa(dp5495
g2
S'ghulu'
p5496
sg4
I8
sa(dp5497
g2
S'gitmo'
p5498
sg4
I8
sa(dp5499
g2
S'globe'
p5500
sg4
I8
sa(dp5501
g2
S'glorious'
p5502
sg4
I8
sa(dp5503
g2
S'green'
p5504
sg4
I8
sa(dp5505
g2
S'grps'
p5506
sg4
I8
sa(dp5507
g2
S'gtwill'
p5508
sg4
I8
sa(dp5509
g2
S'gues'
p5510
sg4
I8
sa(dp5511
g2
S'gulf'
p5512
sg4
I8
sa(dp5513
g2
S'haftar'
p5514
sg4
I8
sa(dp5515
g2
S'hamamilitaryairport'
p5516
sg4
I8
sa(dp5517
g2
S'handed'
p5518
sg4
I8
sa(dp5519
g2
S'handle'
p5520
sg4
I8
sa(dp5521
g2
S'happens'
p5522
sg4
I8
sa(dp5523
g2
S'harakat'
p5524
sg4
I8
sa(dp5525
g2
S'hardship'
p5526
sg4
I8
sa(dp5527
g2
S'hawla'
p5528
sg4
I8
sa(dp5529
g2
S'haya'
p5530
sg4
I8
sa(dp5531
g2
S'hazmnasr'
p5532
sg4
I8
sa(dp5533
g2
S'helpers'
p5534
sg4
I8
sa(dp5535
g2
S'hereafter'
p5536
sg4
I8
sa(dp5537
g2
S'hero'
p5538
sg4
I8
sa(dp5539
g2
S'hidden'
p5540
sg4
I8
sa(dp5541
g2
S'hikjhi'
p5542
sg4
I8
sa(dp5543
g2
S'hill'
p5544
sg4
I8
sa(dp5545
g2
S'hint'
p5546
sg4
I8
sa(dp5547
g2
S'hizbi'
p5548
sg4
I8
sa(dp5549
g2
S'homes'
p5550
sg4
I8
sa(dp5551
g2
S'honorable'
p5552
sg4
I8
sa(dp5553
g2
S'honored'
p5554
sg4
I8
sa(dp5555
g2
S'huh'
p5556
sg4
I8
sa(dp5557
g2
S'humanity'
p5558
sg4
I8
sa(dp5559
g2
S'humdulillah'
p5560
sg4
I8
sa(dp5561
g2
S'hunt'
p5562
sg4
I8
sa(dp5563
g2
S'husband'
p5564
sg4
I8
sa(dp5565
g2
S'hypocrisy'
p5566
sg4
I8
sa(dp5567
g2
S'hypocritical'
p5568
sg4
I8
sa(dp5569
g2
S'ibnadam95'
p5570
sg4
I8
sa(dp5571
g2
S'ibnmuslim1'
p5572
sg4
I8
sa(dp5573
g2
S'idol'
p5574
sg4
I8
sa(dp5575
g2
S'ijtihad'
p5576
sg4
I8
sa(dp5577
g2
S'ikhwaan'
p5578
sg4
I8
sa(dp5579
g2
S'ilah'
p5580
sg4
I8
sa(dp5581
g2
S'include'
p5582
sg4
I8
sa(dp5583
g2
S'infact'
p5584
sg4
I8
sa(dp5585
g2
S'infront'
p5586
sg4
I8
sa(dp5587
g2
S'inheritors'
p5588
sg4
I8
sa(dp5589
g2
S'injusticefacts'
p5590
sg4
I8
sa(dp5591
g2
S'innovators'
p5592
sg4
I8
sa(dp5593
g2
S'insecure'
p5594
sg4
I8
sa(dp5595
g2
S'insignificant'
p5596
sg4
I8
sa(dp5597
g2
S'internet'
p5598
sg4
I8
sa(dp5599
g2
S'invalid'
p5600
sg4
I8
sa(dp5601
g2
S'islamically'
p5602
sg4
I8
sa(dp5603
g2
S'islamicemirates'
p5604
sg4
I8
sa(dp5605
g2
S'itsnadias'
p5606
sg4
I8
sa(dp5607
g2
S'iyad'
p5608
sg4
I8
sa(dp5609
g2
S'jabir'
p5610
sg4
I8
sa(dp5611
g2
S'jahanam'
p5612
sg4
I8
sa(dp5613
g2
S'james'
p5614
sg4
I8
sa(dp5615
g2
S'jew'
p5616
sg4
I8
sa(dp5617
g2
S'jewish'
p5618
sg4
I8
sa(dp5619
g2
S'ji'
p5620
sg4
I8
sa(dp5621
g2
S'jihadfard'
p5622
sg4
I8
sa(dp5623
g2
S'jizyah'
p5624
sg4
I8
sa(dp5625
g2
S'jnisis'
p5626
sg4
I8
sa(dp5627
g2
S'justified'
p5628
sg4
I8
sa(dp5629
g2
S'khan'
p5630
sg4
I8
sa(dp5631
g2
S'khilaafah'
p5632
sg4
I8
sa(dp5633
g2
S'khutba'
p5634
sg4
I8
sa(dp5635
g2
S'kitchen'
p5636
sg4
I8
sa(dp5637
g2
S'kk61raoof'
p5638
sg4
I8
sa(dp5639
g2
S'kobani'
p5640
sg4
I8
sa(dp5641
g2
S'ksa'
p5642
sg4
I8
sa(dp5643
g2
S'kufrbittaghout'
p5644
sg4
I8
sa(dp5645
g2
S'kurdishbaby1976'
p5646
sg4
I8
sa(dp5647
g2
S'kurds'
p5648
sg4
I8
sa(dp5649
g2
S'labeling'
p5650
sg4
I8
sa(dp5651
g2
S'largest'
p5652
sg4
I8
sa(dp5653
g2
S'latakia'
p5654
sg4
I8
sa(dp5655
g2
S'lately'
p5656
sg4
I8
sa(dp5657
g2
S'laughing'
p5658
sg4
I8
sa(dp5659
g2
S'lay'
p5660
sg4
I8
sa(dp5661
g2
S'learned'
p5662
sg4
I8
sa(dp5663
g2
S'lebanon'
p5664
sg4
I8
sa(dp5665
g2
S'lil'
p5666
sg4
I8
sa(dp5667
g2
S'lived'
p5668
sg4
I8
sa(dp5669
g2
S'locked'
p5670
sg4
I8
sa(dp5671
g2
S'lonely'
p5672
sg4
I8
sa(dp5673
g2
S'looked'
p5674
sg4
I8
sa(dp5675
g2
S'lose'
p5676
sg4
I8
sa(dp5677
g2
S'lovely'
p5678
sg4
I8
sa(dp5679
g2
S'lowly'
p5680
sg4
I8
sa(dp5681
g2
S'maghreb'
p5682
sg4
I8
sa(dp5683
g2
S'mahdi'
p5684
sg4
I8
sa(dp5685
g2
S'mainly'
p5686
sg4
I8
sa(dp5687
g2
S'male'
p5688
sg4
I8
sa(dp5689
g2
S'malhamah'
p5690
sg4
I8
sa(dp5691
g2
S'malik'
p5692
sg4
I8
sa(dp5693
g2
S'manhaaj'
p5694
sg4
I8
sa(dp5695
g2
S'mankind'
p5696
sg4
I8
sa(dp5697
g2
S'manner'
p5698
sg4
I8
sa(dp5699
g2
S'mannered'
p5700
sg4
I8
sa(dp5701
g2
S'maqdis'
p5702
sg4
I8
sa(dp5703
g2
S'mark'
p5704
sg4
I8
sa(dp5705
g2
S'marwan'
p5706
sg4
I8
sa(dp5707
g2
S'mashaa'
p5708
sg4
I8
sa(dp5709
g2
S'matters'
p5710
sg4
I8
sa(dp5711
g2
S'meal'
p5712
sg4
I8
sa(dp5713
g2
S'medicine'
p5714
sg4
I8
sa(dp5715
g2
S'mentions'
p5716
sg4
I8
sa(dp5717
g2
S'mere'
p5718
sg4
I8
sa(dp5719
g2
S'merely'
p5720
sg4
I8
sa(dp5721
g2
S'method'
p5722
sg4
I8
sa(dp5723
g2
S'militants'
p5724
sg4
I8
sa(dp5725
g2
S'mine'
p5726
sg4
I8
sa(dp5727
g2
S'missed'
p5728
sg4
I8
sa(dp5729
g2
S'mistaken'
p5730
sg4
I8
sa(dp5731
g2
S'moazzam'
p5732
sg4
I8
sa(dp5733
g2
S'modernist'
p5734
sg4
I8
sa(dp5735
g2
S'mohammad'
p5736
sg4
I8
sa(dp5737
g2
S'monkey'
p5738
sg4
I8
sa(dp5739
g2
S'morek'
p5740
sg4
I8
sa(dp5741
g2
S'movement'
p5742
sg4
I8
sa(dp5743
g2
S'mrjaman'
p5744
sg4
I8
sa(dp5745
g2
S'mubahala'
p5746
sg4
I8
sa(dp5747
g2
S'mufti'
p5748
sg4
I8
sa(dp5749
g2
S'muj'
p5750
sg4
I8
sa(dp5751
g2
S'mujahdeen'
p5752
sg4
I8
sa(dp5753
g2
S'mujahidun'
p5754
sg4
I8
sa(dp5755
g2
S'mums'
p5756
sg4
I8
sa(dp5757
g2
S'muqatil'
p5758
sg4
I8
sa(dp5759
g2
S'murdered'
p5760
sg4
I8
sa(dp5761
g2
S'murderers'
p5762
sg4
I8
sa(dp5763
g2
S'murjia'
p5764
sg4
I8
sa(dp5765
g2
S'muthanna88'
p5766
sg4
I8
sa(dp5767
g2
S'mwnnews'
p5768
sg4
I8
sa(dp5769
g2
S'mypoint11'
p5770
sg4
I8
sa(dp5771
g2
S'nafs'
p5772
sg4
I8
sa(dp5773
g2
S'najar'
p5774
sg4
I8
sa(dp5775
g2
S'nasheed'
p5776
sg4
I8
sa(dp5777
g2
S'nasr'
p5778
sg4
I8
sa(dp5779
g2
S'nationalists'
p5780
sg4
I8
sa(dp5781
g2
S'newtxseatcovers'
p5782
sg4
I8
sa(dp5783
g2
S'no1'
p5784
sg4
I8
sa(dp5785
g2
S'non'
p5786
sg4
I8
sa(dp5787
g2
S'northern'
p5788
sg4
I8
sa(dp5789
g2
S'nw'
p5790
sg4
I8
sa(dp5791
g2
S'obamas'
p5792
sg4
I8
sa(dp5793
g2
S'obvious'
p5794
sg4
I8
sa(dp5795
g2
S'ocalan'
p5796
sg4
I8
sa(dp5797
g2
S'offered'
p5798
sg4
I8
sa(dp5799
g2
S'officers'
p5800
sg4
I8
sa(dp5801
g2
S'officially'
p5802
sg4
I8
sa(dp5803
g2
S'officials'
p5804
sg4
I8
sa(dp5805
g2
S'older'
p5806
sg4
I8
sa(dp5807
g2
S'ongoing'
p5808
sg4
I8
sa(dp5809
g2
S'openly'
p5810
sg4
I8
sa(dp5811
g2
S'orders'
p5812
sg4
I8
sa(dp5813
g2
S'pakistani'
p5814
sg4
I8
sa(dp5815
g2
S'palace'
p5816
sg4
I8
sa(dp5817
g2
S'palestineresists'
p5818
sg4
I8
sa(dp5819
g2
S'palestinian'
p5820
sg4
I8
sa(dp5821
g2
S'parts'
p5822
sg4
I8
sa(dp5823
g2
S'paulieverity'
p5824
sg4
I8
sa(dp5825
g2
S'peaceful'
p5826
sg4
I8
sa(dp5827
g2
S'perform'
p5828
sg4
I8
sa(dp5829
g2
S'physically'
p5830
sg4
I8
sa(dp5831
g2
S'piety'
p5832
sg4
I8
sa(dp5833
g2
S'planning'
p5834
sg4
I8
sa(dp5835
g2
S'pleases'
p5836
sg4
I8
sa(dp5837
g2
S'pledge'
p5838
sg4
I8
sa(dp5839
g2
S'plp'
p5840
sg4
I8
sa(dp5841
g2
S'popular'
p5842
sg4
I8
sa(dp5843
g2
S'porky'
p5844
sg4
I8
sa(dp5845
g2
S'possibility'
p5846
sg4
I8
sa(dp5847
g2
S'posts'
p5848
sg4
I8
sa(dp5849
g2
S'practicing'
p5850
sg4
I8
sa(dp5851
g2
S'prefer'
p5852
sg4
I8
sa(dp5853
g2
S'prepared'
p5854
sg4
I8
sa(dp5855
g2
S'presented'
p5856
sg4
I8
sa(dp5857
g2
S'promote'
p5858
sg4
I8
sa(dp5859
g2
S'propaganda'
p5860
sg4
I8
sa(dp5861
g2
S'properly'
p5862
sg4
I8
sa(dp5863
g2
S'proposed'
p5864
sg4
I8
sa(dp5865
g2
S'proven'
p5866
sg4
I8
sa(dp5867
g2
S'pulled'
p5868
sg4
I8
sa(dp5869
g2
S'punish'
p5870
sg4
I8
sa(dp5871
g2
S'purify'
p5872
sg4
I8
sa(dp5873
g2
S'qahtani'
p5874
sg4
I8
sa(dp5875
g2
S'qitaal'
p5876
sg4
I8
sa(dp5877
g2
S'qital'
p5878
sg4
I8
sa(dp5879
g2
S'quick'
p5880
sg4
I8
sa(dp5881
g2
S'quickieleaks'
p5882
sg4
I8
sa(dp5883
g2
S'rafidaah'
p5884
sg4
I8
sa(dp5885
g2
S'raised'
p5886
sg4
I8
sa(dp5887
g2
S'ran'
p5888
sg4
I8
sa(dp5889
g2
S'reaches'
p5890
sg4
I8
sa(dp5891
g2
S'reaching'
p5892
sg4
I8
sa(dp5893
g2
S'realities'
p5894
sg4
I8
sa(dp5895
g2
S'receive'
p5896
sg4
I8
sa(dp5897
g2
S'received'
p5898
sg4
I8
sa(dp5899
g2
S'reconciliation'
p5900
sg4
I8
sa(dp5901
g2
S'recovery'
p5902
sg4
I8
sa(dp5903
g2
S'reference'
p5904
sg4
I8
sa(dp5905
g2
S'referring'
p5906
sg4
I8
sa(dp5907
g2
S'refugees'
p5908
sg4
I8
sa(dp5909
g2
S'refusal'
p5910
sg4
I8
sa(dp5911
g2
S'refuting'
p5912
sg4
I8
sa(dp5913
g2
S'regard'
p5914
sg4
I8
sa(dp5915
g2
S'rejoice'
p5916
sg4
I8
sa(dp5917
g2
S'releases'
p5918
sg4
I8
sa(dp5919
g2
S'religious'
p5920
sg4
I8
sa(dp5921
g2
S'rely'
p5922
sg4
I8
sa(dp5923
g2
S'remained'
p5924
sg4
I8
sa(dp5925
g2
S'remaining'
p5926
sg4
I8
sa(dp5927
g2
S'remembers'
p5928
sg4
I8
sa(dp5929
g2
S'reminder'
p5930
sg4
I8
sa(dp5931
g2
S'repents'
p5932
sg4
I8
sa(dp5933
g2
S'request'
p5934
sg4
I8
sa(dp5935
g2
S'reservedk'
p5936
sg4
I8
sa(dp5937
g2
S'responsible'
p5938
sg4
I8
sa(dp5939
g2
S'retreat'
p5940
sg4
I8
sa(dp5941
g2
S'revealed'
p5942
sg4
I8
sa(dp5943
g2
S'risk'
p5944
sg4
I8
sa(dp5945
g2
S'river'
p5946
sg4
I8
sa(dp5947
g2
S'ruled'
p5948
sg4
I8
sa(dp5949
g2
S'rumors'
p5950
sg4
I8
sa(dp5951
g2
S'runs'
p5952
sg4
I8
sa(dp5953
g2
S'rush'
p5954
sg4
I8
sa(dp5955
g2
S'russian'
p5956
sg4
I8
sa(dp5957
g2
S'saeed'
p5958
sg4
I8
sa(dp5959
g2
S'saheeh'
p5960
sg4
I8
sa(dp5961
g2
S'sahur'
p5962
sg4
I8
sa(dp5963
g2
S'sahwat'
p5964
sg4
I8
sa(dp5965
g2
S'salafijihadi'
p5966
sg4
I8
sa(dp5967
g2
S'salams'
p5968
sg4
I8
sa(dp5969
g2
S'saleh'
p5970
sg4
I8
sa(dp5971
g2
S'sam'
p5972
sg4
I8
sa(dp5973
g2
S'saraya'
p5974
sg4
I8
sa(dp5975
g2
S'satisfied'
p5976
sg4
I8
sa(dp5977
g2
S'sayfullah'
p5978
sg4
I8
sa(dp5979
g2
S'sayin'
p5980
sg4
I8
sa(dp5981
g2
S'sayyid'
p5982
sg4
I8
sa(dp5983
g2
S'sayyidqutb1'
p5984
sg4
I8
sa(dp5985
g2
S'score'
p5986
sg4
I8
sa(dp5987
g2
S'screaming'
p5988
sg4
I8
sa(dp5989
g2
S'scum'
p5990
sg4
I8
sa(dp5991
g2
S'search'
p5992
sg4
I8
sa(dp5993
g2
S'september11'
p5994
sg4
I8
sa(dp5995
g2
S'series'
p5996
sg4
I8
sa(dp5997
g2
S'severe'
p5998
sg4
I8
sa(dp5999
g2
S'sex'
p6000
sg4
I8
sa(dp6001
g2
S'sexual'
p6002
sg4
I8
sa(dp6003
g2
S'shahaadah'
p6004
sg4
I8
sa(dp6005
g2
S'shahid'
p6006
sg4
I8
sa(dp6007
g2
S'shamil'
p6008
sg4
I8
sa(dp6009
g2
S'shanqiti'
p6010
sg4
I8
sa(dp6011
g2
S'shedding'
p6012
sg4
I8
sa(dp6013
g2
S'shifaa'
p6014
sg4
I8
sa(dp6015
g2
S'shk'
p6016
sg4
I8
sa(dp6017
g2
S'shooting'
p6018
sg4
I8
sa(dp6019
g2
S'siddiqui'
p6020
sg4
I8
sa(dp6021
g2
S'signs'
p6022
sg4
I8
sa(dp6023
g2
S'similarities'
p6024
sg4
I8
sa(dp6025
g2
S'sisboombahbah'
p6026
sg4
I8
sa(dp6027
g2
S'sisi'
p6028
sg4
I8
sa(dp6029
g2
S'slaughter'
p6030
sg4
I8
sa(dp6031
g2
S'sleeping'
p6032
sg4
I8
sa(dp6033
g2
S'smoke'
p6034
sg4
I8
sa(dp6035
g2
S'sniper'
p6036
sg4
I8
sa(dp6037
g2
S'solve'
p6038
sg4
I8
sa(dp6039
g2
S'som'
p6040
sg4
I8
sa(dp6041
g2
S'somewhere'
p6042
sg4
I8
sa(dp6043
g2
S'sooner'
p6044
sg4
I8
sa(dp6045
g2
S'sort'
p6046
sg4
I8
sa(dp6047
g2
S'southern'
p6048
sg4
I8
sa(dp6049
g2
S'spending'
p6050
sg4
I8
sa(dp6051
g2
S'starting'
p6052
sg4
I8
sa(dp6053
g2
S'stealing'
p6054
sg4
I8
sa(dp6055
g2
S'steeds'
p6056
sg4
I8
sa(dp6057
g2
S'stevie592'
p6058
sg4
I8
sa(dp6059
g2
S'strategic'
p6060
sg4
I8
sa(dp6061
g2
S'strength'
p6062
sg4
I8
sa(dp6063
g2
S'strictly'
p6064
sg4
I8
sa(dp6065
g2
S'strongly'
p6066
sg4
I8
sa(dp6067
g2
S'sudden'
p6068
sg4
I8
sa(dp6069
g2
S'sunniswhere'
p6070
sg4
I8
sa(dp6071
g2
S'supposed'
p6072
sg4
I8
sa(dp6073
g2
S'suqur'
p6074
sg4
I8
sa(dp6075
g2
S'surgery'
p6076
sg4
I8
sa(dp6077
g2
S'sweetness'
p6078
sg4
I8
sa(dp6079
g2
S'sympathy'
p6080
sg4
I8
sa(dp6081
g2
S'system'
p6082
sg4
I8
sa(dp6083
g2
S'taghut'
p6084
sg4
I8
sa(dp6085
g2
S'talib'
p6086
sg4
I8
sa(dp6087
g2
S'talked'
p6088
sg4
I8
sa(dp6089
g2
S'targeted'
p6090
sg4
I8
sa(dp6091
g2
S'targets'
p6092
sg4
I8
sa(dp6093
g2
S'taste'
p6094
sg4
I8
sa(dp6095
g2
S'taught'
p6096
sg4
I8
sa(dp6097
g2
S'tested'
p6098
sg4
I8
sa(dp6099
g2
S'text'
p6100
sg4
I8
sa(dp6101
g2
S'thejubys'
p6102
sg4
I8
sa(dp6103
g2
S'thin'
p6104
sg4
I8
sa(dp6105
g2
S'threatened'
p6106
sg4
I8
sa(dp6107
g2
S'threats'
p6108
sg4
I8
sa(dp6109
g2
S'threw'
p6110
sg4
I8
sa(dp6111
g2
S'titled'
p6112
sg4
I8
sa(dp6113
g2
S'tohaaqureshi'
p6114
sg4
I8
sa(dp6115
g2
S'topic'
p6116
sg4
I8
sa(dp6117
g2
S'tough'
p6118
sg4
I8
sa(dp6119
g2
S'toward'
p6120
sg4
I8
sa(dp6121
g2
S'toy'
p6122
sg4
I8
sa(dp6123
g2
S'translate'
p6124
sg4
I8
sa(dp6125
g2
S'trap'
p6126
sg4
I8
sa(dp6127
g2
S'tree'
p6128
sg4
I8
sa(dp6129
g2
S'trial'
p6130
sg4
I8
sa(dp6131
g2
S'truce'
p6132
sg4
I8
sa(dp6133
g2
S'uae'
p6134
sg4
I8
sa(dp6135
g2
S'ubaidah'
p6136
sg4
I8
sa(dp6137
g2
S'ullema'
p6138
sg4
I8
sa(dp6139
g2
S'umaraa'
p6140
sg4
I8
sa(dp6141
g2
S'umars'
p6142
sg4
I8
sa(dp6143
g2
S'unable'
p6144
sg4
I8
sa(dp6145
g2
S'unaware'
p6146
sg4
I8
sa(dp6147
g2
S'unislamic'
p6148
sg4
I8
sa(dp6149
g2
S'uniting'
p6150
sg4
I8
sa(dp6151
g2
S'updated'
p6152
sg4
I8
sa(dp6153
g2
S'urself'
p6154
sg4
I8
sa(dp6155
g2
S'uscoalition'
p6156
sg4
I8
sa(dp6157
g2
S'vehicles'
p6158
sg4
I8
sa(dp6159
g2
S'veil'
p6160
sg4
I8
sa(dp6161
g2
S'victorious'
p6162
sg4
I8
sa(dp6163
g2
S'virtue'
p6164
sg4
I8
sa(dp6165
g2
S'wahn'
p6166
sg4
I8
sa(dp6167
g2
S'wakeel'
p6168
sg4
I8
sa(dp6169
g2
S'walid'
p6170
sg4
I8
sa(dp6171
g2
S'walking'
p6172
sg4
I8
sa(dp6173
g2
S'warm'
p6174
sg4
I8
sa(dp6175
g2
S'warned'
p6176
sg4
I8
sa(dp6177
g2
S'warning'
p6178
sg4
I8
sa(dp6179
g2
S'warns'
p6180
sg4
I8
sa(dp6181
g2
S'warplanes'
p6182
sg4
I8
sa(dp6183
g2
S'wars'
p6184
sg4
I8
sa(dp6185
g2
S'waste'
p6186
sg4
I8
sa(dp6187
g2
S'weakness'
p6188
sg4
I8
sa(dp6189
g2
S'wh'
p6190
sg4
I8
sa(dp6191
g2
S'white'
p6192
sg4
I8
sa(dp6193
g2
S'whose'
p6194
sg4
I8
sa(dp6195
g2
S'wills'
p6196
sg4
I8
sa(dp6197
g2
S'wings'
p6198
sg4
I8
sa(dp6199
g2
S'wisdom'
p6200
sg4
I8
sa(dp6201
g2
S'worked'
p6202
sg4
I8
sa(dp6203
g2
S'worries'
p6204
sg4
I8
sa(dp6205
g2
S'wrath'
p6206
sg4
I8
sa(dp6207
g2
S'ws'
p6208
sg4
I8
sa(dp6209
g2
S'xarpiyetkurdi'
p6210
sg4
I8
sa(dp6211
g2
S'youth'
p6212
sg4
I8
sa(dp6213
g2
S'zakariya1996'
p6214
sg4
I8
sa(dp6215
g2
S'zakat'
p6216
sg4
I8
sa(dp6217
g2
S'zinnura'
p6218
sg4
I8
sa(dp6219
g2
S'|'
p6220
sg4
I8
sa(dp6221
g2
S'+'
p6222
sg4
I6
sa(dp6223
g2
S'a3lam'
p6224
sg4
I6
sa(dp6225
g2
S'aal'
p6226
sg4
I6
sa(dp6227
g2
S'abandon'
p6228
sg4
I6
sa(dp6229
g2
S'abandons'
p6230
sg4
I6
sa(dp6231
g2
S'abarumaysa'
p6232
sg4
I6
sa(dp6233
g2
S'abc'
p6234
sg4
I6
sa(dp6235
g2
S'abdulmalik1'
p6236
sg4
I6
sa(dp6237
g2
S'abroad'
p6238
sg4
I6
sa(dp6239
g2
S'abu7ah7aih'
p6240
sg4
I6
sa(dp6241
g2
S'abubakr1492'
p6242
sg4
I6
sa(dp6243
g2
S'abubakraljanab'
p6244
sg4
I6
sa(dp6245
g2
S'abubekralb'
p6246
sg4
I6
sa(dp6247
g2
S'abuhafsdz'
p6248
sg4
I6
sa(dp6249
g2
S'abukenan'
p6250
sg4
I6
sa(dp6251
g2
S'aburayanmuhajir'
p6252
sg4
I6
sa(dp6253
g2
S'aburumaysah1403'
p6254
sg4
I6
sa(dp6255
g2
S'abuwaleeduk'
p6256
sg4
I6
sa(dp6257
g2
S'abuwukasyah'
p6258
sg4
I6
sa(dp6259
g2
S'abuyunus123'
p6260
sg4
I6
sa(dp6261
g2
S'acceptable'
p6262
sg4
I6
sa(dp6263
g2
S'accepting'
p6264
sg4
I6
sa(dp6265
g2
S'accordance'
p6266
sg4
I6
sa(dp6267
g2
S'accountability'
p6268
sg4
I6
sa(dp6269
g2
S'accusation'
p6270
sg4
I6
sa(dp6271
g2
S'acted'
p6272
sg4
I6
sa(dp6273
g2
S'acts'
p6274
sg4
I6
sa(dp6275
g2
S'admitted'
p6276
sg4
I6
sa(dp6277
g2
S'advancements'
p6278
sg4
I6
sa(dp6279
g2
S'afg'
p6280
sg4
I6
sa(dp6281
g2
S'afghani'
p6282
sg4
I6
sa(dp6283
g2
S'africa'
p6284
sg4
I6
sa(dp6285
g2
S'agencies'
p6286
sg4
I6
sa(dp6287
g2
S'agrees'
p6288
sg4
I6
sa(dp6289
g2
S'ahraralsham'
p6290
sg4
I6
sa(dp6291
g2
S'aim'
p6292
sg4
I6
sa(dp6293
g2
S'ain'
p6294
sg4
I6
sa(dp6295
g2
S'airstrike'
p6296
sg4
I6
sa(dp6297
g2
S'ajr'
p6298
sg4
I6
sa(dp6299
g2
S'akhiabukhalid'
p6300
sg4
I6
sa(dp6301
g2
S'akhib'
p6302
sg4
I6
sa(dp6303
g2
S'aki'
p6304
sg4
I6
sa(dp6305
g2
S'ala'
p6306
sg4
I6
sa(dp6307
g2
S'alaa'
p6308
sg4
I6
sa(dp6309
g2
S'alaikum'
p6310
sg4
I6
sa(dp6311
g2
S'alarab'
p6312
sg4
I6
sa(dp6313
g2
S'albab'
p6314
sg4
I6
sa(dp6315
g2
S'albasri'
p6316
sg4
I6
sa(dp6317
g2
S'albritaanii'
p6318
sg4
I6
sa(dp6319
g2
S'aldhawahiri'
p6320
sg4
I6
sa(dp6321
g2
S'alhamdhulillaah'
p6322
sg4
I6
sa(dp6323
g2
S'alhasan'
p6324
sg4
I6
sa(dp6325
g2
S'alialamriki'
p6326
sg4
I6
sa(dp6327
g2
S'alla'
p6328
sg4
I6
sa(dp6329
g2
S'allahulmustan'
p6330
sg4
I6
sa(dp6331
g2
S'allegience'
p6332
sg4
I6
sa(dp6333
g2
S'allowing'
p6334
sg4
I6
sa(dp6335
g2
S'almadani'
p6336
sg4
I6
sa(dp6337
g2
S'almighty'
p6338
sg4
I6
sa(dp6339
g2
S'almujahidin'
p6340
sg4
I6
sa(dp6341
g2
S'alqassam'
p6342
sg4
I6
sa(dp6343
g2
S'alsibai'
p6344
sg4
I6
sa(dp6345
g2
S'although'
p6346
sg4
I6
sa(dp6347
g2
S'aluraydi'
p6348
sg4
I6
sa(dp6349
g2
S'alwan'
p6350
sg4
I6
sa(dp6351
g2
S'americas'
p6352
sg4
I6
sa(dp6353
g2
S'amreekiwitness'
p6354
sg4
I6
sa(dp6355
g2
S'anhu'
p6356
sg4
I6
sa(dp6357
g2
S'animalistic'
p6358
sg4
I6
sa(dp6359
g2
S'announces'
p6360
sg4
I6
sa(dp6361
g2
S'ansariraneng'
p6362
sg4
I6
sa(dp6363
g2
S'antiis'
p6364
sg4
I6
sa(dp6365
g2
S'antiwest99'
p6366
sg4
I6
sa(dp6367
g2
S'anymore'
p6368
sg4
I6
sa(dp6369
g2
S'appeal'
p6370
sg4
I6
sa(dp6371
g2
S'appear'
p6372
sg4
I6
sa(dp6373
g2
S'appears'
p6374
sg4
I6
sa(dp6375
g2
S'appropriate'
p6376
sg4
I6
sa(dp6377
g2
S'approx'
p6378
sg4
I6
sa(dp6379
g2
S'april'
p6380
sg4
I6
sa(dp6381
g2
S'aqidah'
p6382
sg4
I6
sa(dp6383
g2
S'arresting'
p6384
sg4
I6
sa(dp6385
g2
S'arrival'
p6386
sg4
I6
sa(dp6387
g2
S'arrive'
p6388
sg4
I6
sa(dp6389
g2
S'asap'
p6390
sg4
I6
sa(dp6391
g2
S'ashshaam'
p6392
sg4
I6
sa(dp6393
g2
S'assassinated'
p6394
sg4
I6
sa(dp6395
g2
S'assassination'
p6396
sg4
I6
sa(dp6397
g2
S'assaults'
p6398
sg4
I6
sa(dp6399
g2
S'assistance'
p6400
sg4
I6
sa(dp6401
g2
S'assunnah'
p6402
sg4
I6
sa(dp6403
g2
S'asylum'
p6404
sg4
I6
sa(dp6405
g2
S'attached'
p6406
sg4
I6
sa(dp6407
g2
S'attaifah'
p6408
sg4
I6
sa(dp6409
g2
S'attention'
p6410
sg4
I6
sa(dp6411
g2
S'awliya'
p6412
sg4
I6
sa(dp6413
g2
S'awn'
p6414
sg4
I6
sa(dp6415
g2
S'aymans'
p6416
sg4
I6
sa(dp6417
g2
S'ayyuhal'
p6418
sg4
I6
sa(dp6419
g2
S'ba'
p6420
sg4
I6
sa(dp6421
g2
S'backbite'
p6422
sg4
I6
sa(dp6423
g2
S'backed'
p6424
sg4
I6
sa(dp6425
g2
S'backstabbed'
p6426
sg4
I6
sa(dp6427
g2
S'bagdadi'
p6428
sg4
I6
sa(dp6429
g2
S'bakri'
p6430
sg4
I6
sa(dp6431
g2
S'banana'
p6432
sg4
I6
sa(dp6433
g2
S'bandits'
p6434
sg4
I6
sa(dp6435
g2
S'banihillal'
p6436
sg4
I6
sa(dp6437
g2
S'bank'
p6438
sg4
I6
sa(dp6439
g2
S'banner'
p6440
sg4
I6
sa(dp6441
g2
S'baqdadi'
p6442
sg4
I6
sa(dp6443
g2
S'barber'
p6444
sg4
I6
sa(dp6445
g2
S'bartoncfc'
p6446
sg4
I6
sa(dp6447
g2
S'baseer'
p6448
sg4
I6
sa(dp6449
g2
S'basic'
p6450
sg4
I6
sa(dp6451
g2
S'basri'
p6452
sg4
I6
sa(dp6453
g2
S'bay'
p6454
sg4
I6
sa(dp6455
g2
S'bayahs'
p6456
sg4
I6
sa(dp6457
g2
S'bayda'
p6458
sg4
I6
sa(dp6459
g2
S'baydhaa'
p6460
sg4
I6
sa(dp6461
g2
S'bc'
p6462
sg4
I6
sa(dp6463
g2
S'beaten'
p6464
sg4
I6
sa(dp6465
g2
S'bedouinmali'
p6466
sg4
I6
sa(dp6467
g2
S'beginsmartin'
p6468
sg4
I6
sa(dp6469
g2
S'behead'
p6470
sg4
I6
sa(dp6471
g2
S'behold'
p6472
sg4
I6
sa(dp6473
g2
S'believ'
p6474
sg4
I6
sa(dp6475
g2
S'belonging'
p6476
sg4
I6
sa(dp6477
g2
S'belongs'
p6478
sg4
I6
sa(dp6479
g2
S'betray'
p6480
sg4
I6
sa(dp6481
g2
S'bilaah'
p6482
sg4
I6
sa(dp6483
g2
S'binding'
p6484
sg4
I6
sa(dp6485
g2
S'bintabdullah94'
p6486
sg4
I6
sa(dp6487
g2
S'bio'
p6488
sg4
I6
sa(dp6489
g2
S'birds'
p6490
sg4
I6
sa(dp6491
g2
S'blah'
p6492
sg4
I6
sa(dp6493
g2
S'blast'
p6494
sg4
I6
sa(dp6495
g2
S'bleed'
p6496
sg4
I6
sa(dp6497
g2
S'bobalhindy'
p6498
sg4
I6
sa(dp6499
g2
S'bombings'
p6500
sg4
I6
sa(dp6501
g2
S'bottom'
p6502
sg4
I6
sa(dp6503
g2
S'bow'
p6504
sg4
I6
sa(dp6505
g2
S'brain'
p6506
sg4
I6
sa(dp6507
g2
S'bread'
p6508
sg4
I6
sa(dp6509
g2
S'bringing'
p6510
sg4
I6
sa(dp6511
g2
S'brits'
p6512
sg4
I6
sa(dp6513
g2
S'buddy'
p6514
sg4
I6
sa(dp6515
g2
S'buff'
p6516
sg4
I6
sa(dp6517
g2
S'buraydah'
p6518
sg4
I6
sa(dp6519
g2
S'burial'
p6520
sg4
I6
sa(dp6521
g2
S'burma'
p6522
sg4
I6
sa(dp6523
g2
S'bury'
p6524
sg4
I6
sa(dp6525
g2
S'butcher'
p6526
sg4
I6
sa(dp6527
g2
S'cafe'
p6528
sg4
I6
sa(dp6529
g2
S'cageprisoners'
p6530
sg4
I6
sa(dp6531
g2
S'callers'
p6532
sg4
I6
sa(dp6533
g2
S'calm'
p6534
sg4
I6
sa(dp6535
g2
S'cameron'
p6536
sg4
I6
sa(dp6537
g2
S'capitalism'
p6538
sg4
I6
sa(dp6539
g2
S'captive'
p6540
sg4
I6
sa(dp6541
g2
S'captives'
p6542
sg4
I6
sa(dp6543
g2
S'capture'
p6544
sg4
I6
sa(dp6545
g2
S'carrying'
p6546
sg4
I6
sa(dp6547
g2
S'cars'
p6548
sg4
I6
sa(dp6549
g2
S'cast'
p6550
sg4
I6
sa(dp6551
g2
S'category'
p6552
sg4
I6
sa(dp6553
g2
S'caucasian'
p6554
sg4
I6
sa(dp6555
g2
S'caught'
p6556
sg4
I6
sa(dp6557
g2
S'causes'
p6558
sg4
I6
sa(dp6559
g2
S'causing'
p6560
sg4
I6
sa(dp6561
g2
S'cease'
p6562
sg4
I6
sa(dp6563
g2
S'central'
p6564
sg4
I6
sa(dp6565
g2
S'certainty'
p6566
sg4
I6
sa(dp6567
g2
S'cha'
p6568
sg4
I6
sa(dp6569
g2
S'chance'
p6570
sg4
I6
sa(dp6571
g2
S'changed'
p6572
sg4
I6
sa(dp6573
g2
S'changes'
p6574
sg4
I6
sa(dp6575
g2
S'changing'
p6576
sg4
I6
sa(dp6577
g2
S'channel'
p6578
sg4
I6
sa(dp6579
g2
S'characteristics'
p6580
sg4
I6
sa(dp6581
g2
S'chechnya'
p6582
sg4
I6
sa(dp6583
g2
S'chickens'
p6584
sg4
I6
sa(dp6585
g2
S'chinyoti1'
p6586
sg4
I6
sa(dp6587
g2
S'citizens'
p6588
sg4
I6
sa(dp6589
g2
S'clarify'
p6590
sg4
I6
sa(dp6591
g2
S'class'
p6592
sg4
I6
sa(dp6593
g2
S'cleared'
p6594
sg4
I6
sa(dp6595
g2
S'clearing'
p6596
sg4
I6
sa(dp6597
g2
S'cleric'
p6598
sg4
I6
sa(dp6599
g2
S'clips'
p6600
sg4
I6
sa(dp6601
g2
S'coconut'
p6602
sg4
I6
sa(dp6603
g2
S'cold'
p6604
sg4
I6
sa(dp6605
g2
S'collapse'
p6606
sg4
I6
sa(dp6607
g2
S'commentary'
p6608
sg4
I6
sa(dp6609
g2
S'communists'
p6610
sg4
I6
sa(dp6611
g2
S'companion'
p6612
sg4
I6
sa(dp6613
g2
S'compared'
p6614
sg4
I6
sa(dp6615
g2
S'con'
p6616
sg4
I6
sa(dp6617
g2
S'concept'
p6618
sg4
I6
sa(dp6619
g2
S'concern'
p6620
sg4
I6
sa(dp6621
g2
S'conclusions'
p6622
sg4
I6
sa(dp6623
g2
S'conduct'
p6624
sg4
I6
sa(dp6625
g2
S'confirmation'
p6626
sg4
I6
sa(dp6627
g2
S'confused'
p6628
sg4
I6
sa(dp6629
g2
S'confusion'
p6630
sg4
I6
sa(dp6631
g2
S'congratulates'
p6632
sg4
I6
sa(dp6633
g2
S'constant'
p6634
sg4
I6
sa(dp6635
g2
S'consult'
p6636
sg4
I6
sa(dp6637
g2
S'context'
p6638
sg4
I6
sa(dp6639
g2
S'continent'
p6640
sg4
I6
sa(dp6641
g2
S'contract'
p6642
sg4
I6
sa(dp6643
g2
S'convenant'
p6644
sg4
I6
sa(dp6645
g2
S'convert'
p6646
sg4
I6
sa(dp6647
g2
S'conveyed'
p6648
sg4
I6
sa(dp6649
g2
S'core'
p6650
sg4
I6
sa(dp6651
g2
S'costs'
p6652
sg4
I6
sa(dp6653
g2
S'cousins'
p6654
sg4
I6
sa(dp6655
g2
S'cowardice'
p6656
sg4
I6
sa(dp6657
g2
S'crap'
p6658
sg4
I6
sa(dp6659
g2
S'create'
p6660
sg4
I6
sa(dp6661
g2
S'crew'
p6662
sg4
I6
sa(dp6663
g2
S'criticism'
p6664
sg4
I6
sa(dp6665
g2
S'criticize'
p6666
sg4
I6
sa(dp6667
g2
S'cross'
p6668
sg4
I6
sa(dp6669
g2
S'crushed'
p6670
sg4
I6
sa(dp6671
g2
S'cubs'
p6672
sg4
I6
sa(dp6673
g2
S'currently'
p6674
sg4
I6
sa(dp6675
g2
S'cutting'
p6676
sg4
I6
sa(dp6677
g2
S'dagestan'
p6678
sg4
I6
sa(dp6679
g2
S'daiyah'
p6680
sg4
I6
sa(dp6681
g2
S'damishq'
p6682
sg4
I6
sa(dp6683
g2
S'darul'
p6684
sg4
I6
sa(dp6685
g2
S'date'
p6686
sg4
I6
sa(dp6687
g2
S'david'
p6688
sg4
I6
sa(dp6689
g2
S'dawud'
p6690
sg4
I6
sa(dp6691
g2
S'ddnomade'
p6692
sg4
I6
sa(dp6693
g2
S'de'
p6694
sg4
I6
sa(dp6695
g2
S'debating'
p6696
sg4
I6
sa(dp6697
g2
S'debt'
p6698
sg4
I6
sa(dp6699
g2
S'decade'
p6700
sg4
I6
sa(dp6701
g2
S'deceived'
p6702
sg4
I6
sa(dp6703
g2
S'defeated'
p6704
sg4
I6
sa(dp6705
g2
S'defections'
p6706
sg4
I6
sa(dp6707
g2
S'definately'
p6708
sg4
I6
sa(dp6709
g2
S'delivered'
p6710
sg4
I6
sa(dp6711
g2
S'denial'
p6712
sg4
I6
sa(dp6713
g2
S'denies'
p6714
sg4
I6
sa(dp6715
g2
S'deprived'
p6716
sg4
I6
sa(dp6717
g2
S'deprives'
p6718
sg4
I6
sa(dp6719
g2
S'dernah'
p6720
sg4
I6
sa(dp6721
g2
S'descend'
p6722
sg4
I6
sa(dp6723
g2
S'describes'
p6724
sg4
I6
sa(dp6725
g2
S'destroys'
p6726
sg4
I6
sa(dp6727
g2
S'deviation'
p6728
sg4
I6
sa(dp6729
g2
S'devils'
p6730
sg4
I6
sa(dp6731
g2
S'diff'
p6732
sg4
I6
sa(dp6733
g2
S'differ'
p6734
sg4
I6
sa(dp6735
g2
S'differenc'
p6736
sg4
I6
sa(dp6737
g2
S'dignity'
p6738
sg4
I6
sa(dp6739
g2
S'directions'
p6740
sg4
I6
sa(dp6741
g2
S'disaster'
p6742
sg4
I6
sa(dp6743
g2
S'disgrace'
p6744
sg4
I6
sa(dp6745
g2
S'disregard'
p6746
sg4
I6
sa(dp6747
g2
S'distancing'
p6748
sg4
I6
sa(dp6749
g2
S'distributing'
p6750
sg4
I6
sa(dp6751
g2
S'district'
p6752
sg4
I6
sa(dp6753
g2
S'disunity'
p6754
sg4
I6
sa(dp6755
g2
S'divided'
p6756
sg4
I6
sa(dp6757
g2
S'dnt'
p6758
sg4
I6
sa(dp6759
g2
S'docs'
p6760
sg4
I6
sa(dp6761
g2
S'doctor'
p6762
sg4
I6
sa(dp6763
g2
S'document'
p6764
sg4
I6
sa(dp6765
g2
S'dollars'
p6766
sg4
I6
sa(dp6767
g2
S'doom'
p6768
sg4
I6
sa(dp6769
g2
S'door'
p6770
sg4
I6
sa(dp6771
g2
S'doreen'
p6772
sg4
I6
sa(dp6773
g2
S'downed'
p6774
sg4
I6
sa(dp6775
g2
S'dreams'
p6776
sg4
I6
sa(dp6777
g2
S'drinks'
p6778
sg4
I6
sa(dp6779
g2
S'dudes'
p6780
sg4
I6
sa(dp6781
g2
S'easier'
p6782
sg4
I6
sa(dp6783
g2
S'economic'
p6784
sg4
I6
sa(dp6785
g2
S'edited'
p6786
sg4
I6
sa(dp6787
g2
S'educated'
p6788
sg4
I6
sa(dp6789
g2
S'email'
p6790
sg4
I6
sa(dp6791
g2
S'embrace'
p6792
sg4
I6
sa(dp6793
g2
S'emerging'
p6794
sg4
I6
sa(dp6795
g2
S'empower'
p6796
sg4
I6
sa(dp6797
g2
S'empowerment'
p6798
sg4
I6
sa(dp6799
g2
S'en'
p6800
sg4
I6
sa(dp6801
g2
S'entering'
p6802
sg4
I6
sa(dp6803
g2
S'equivalent'
p6804
sg4
I6
sa(dp6805
g2
S'eradicate'
p6806
sg4
I6
sa(dp6807
g2
S'establishing'
p6808
sg4
I6
sa(dp6809
g2
S'ethiopia'
p6810
sg4
I6
sa(dp6811
g2
S'ev'
p6812
sg4
I6
sa(dp6813
g2
S'everytime'
p6814
sg4
I6
sa(dp6815
g2
S'exalted'
p6816
sg4
I6
sa(dp6817
g2
S'excerpt'
p6818
sg4
I6
sa(dp6819
g2
S'excessively'
p6820
sg4
I6
sa(dp6821
g2
S'excuses'
p6822
sg4
I6
sa(dp6823
g2
S'exit'
p6824
sg4
I6
sa(dp6825
g2
S'expand'
p6826
sg4
I6
sa(dp6827
g2
S'expected'
p6828
sg4
I6
sa(dp6829
g2
S'expelled'
p6830
sg4
I6
sa(dp6831
g2
S'expenses'
p6832
sg4
I6
sa(dp6833
g2
S'explosion'
p6834
sg4
I6
sa(dp6835
g2
S'extract'
p6836
sg4
I6
sa(dp6837
g2
S'ez'
p6838
sg4
I6
sa(dp6839
g2
S'ezzor'
p6840
sg4
I6
sa(dp6841
g2
S'f16'
p6842
sg4
I6
sa(dp6843
g2
S'fa'
p6844
sg4
I6
sa(dp6845
g2
S'facing'
p6846
sg4
I6
sa(dp6847
g2
S'factories'
p6848
sg4
I6
sa(dp6849
g2
S'fails'
p6850
sg4
I6
sa(dp6851
g2
S'farooqi'
p6852
sg4
I6
sa(dp6853
g2
S'faroukmuslym'
p6854
sg4
I6
sa(dp6855
g2
S'faysalfreegaza'
p6856
sg4
I6
sa(dp6857
g2
S'fearing'
p6858
sg4
I6
sa(dp6859
g2
S'fee'
p6860
sg4
I6
sa(dp6861
g2
S'feet'
p6862
sg4
I6
sa(dp6863
g2
S'felt'
p6864
sg4
I6
sa(dp6865
g2
S'female'
p6866
sg4
I6
sa(dp6867
g2
S'fezoo111'
p6868
sg4
I6
sa(dp6869
g2
S'fights'
p6870
sg4
I6
sa(dp6871
g2
S'finds'
p6872
sg4
I6
sa(dp6873
g2
S'fine'
p6874
sg4
I6
sa(dp6875
g2
S'fir'
p6876
sg4
I6
sa(dp6877
g2
S'firdaus'
p6878
sg4
I6
sa(dp6879
g2
S'firing'
p6880
sg4
I6
sa(dp6881
g2
S'firmness'
p6882
sg4
I6
sa(dp6883
g2
S'fisabilillah'
p6884
sg4
I6
sa(dp6885
g2
S'fisabillah'
p6886
sg4
I6
sa(dp6887
g2
S'flies'
p6888
sg4
I6
sa(dp6889
g2
S'foam'
p6890
sg4
I6
sa(dp6891
g2
S'foe'
p6892
sg4
I6
sa(dp6893
g2
S'folk'
p6894
sg4
I6
sa(dp6895
g2
S'foolish'
p6896
sg4
I6
sa(dp6897
g2
S'forbidden'
p6898
sg4
I6
sa(dp6899
g2
S'forbidding'
p6900
sg4
I6
sa(dp6901
g2
S'forceful'
p6902
sg4
I6
sa(dp6903
g2
S'formal'
p6904
sg4
I6
sa(dp6905
g2
S'formercoconut'
p6906
sg4
I6
sa(dp6907
g2
S'forum'
p6908
sg4
I6
sa(dp6909
g2
S'foul'
p6910
sg4
I6
sa(dp6911
g2
S'freeaafiasiddiqui'
p6912
sg4
I6
sa(dp6913
g2
S'freefalasteen'
p6914
sg4
I6
sa(dp6915
g2
S'freepalestine'
p6916
sg4
I6
sa(dp6917
g2
S'frnt'
p6918
sg4
I6
sa(dp6919
g2
S'frontline'
p6920
sg4
I6
sa(dp6921
g2
S'fulfilled'
p6922
sg4
I6
sa(dp6923
g2
S'fulfilling'
p6924
sg4
I6
sa(dp6925
g2
S'funds'
p6926
sg4
I6
sa(dp6927
g2
S'fuqaha'
p6928
sg4
I6
sa(dp6929
g2
S'g3nn1e'
p6930
sg4
I6
sa(dp6931
g2
S'gained'
p6932
sg4
I6
sa(dp6933
g2
S'game'
p6934
sg4
I6
sa(dp6935
g2
S'gang'
p6936
sg4
I6
sa(dp6937
g2
S'gangster'
p6938
sg4
I6
sa(dp6939
g2
S'gas'
p6940
sg4
I6
sa(dp6941
g2
S'ghulaat'
p6942
sg4
I6
sa(dp6943
g2
S'ghulat'
p6944
sg4
I6
sa(dp6945
g2
S'ghuraba'
p6946
sg4
I6
sa(dp6947
g2
S'girls'
p6948
sg4
I6
sa(dp6949
g2
S'gladly'
p6950
sg4
I6
sa(dp6951
g2
S'globalized'
p6952
sg4
I6
sa(dp6953
g2
S'godane'
p6954
sg4
I6
sa(dp6955
g2
S'google'
p6956
sg4
I6
sa(dp6957
g2
S'gov'
p6958
sg4
I6
sa(dp6959
g2
S'goverened'
p6960
sg4
I6
sa(dp6961
g2
S'grain'
p6962
sg4
I6
sa(dp6963
g2
S'grandmother'
p6964
sg4
I6
sa(dp6965
g2
S'graphic'
p6966
sg4
I6
sa(dp6967
g2
S'greedy'
p6968
sg4
I6
sa(dp6969
g2
S'grew'
p6970
sg4
I6
sa(dp6971
g2
S'grey'
p6972
sg4
I6
sa(dp6973
g2
S'grp'
p6974
sg4
I6
sa(dp6975
g2
S'guarantee'
p6976
sg4
I6
sa(dp6977
g2
S'guardian'
p6978
sg4
I6
sa(dp6979
g2
S'gunmen'
p6980
sg4
I6
sa(dp6981
g2
S'gvt'
p6982
sg4
I6
sa(dp6983
g2
S'hafidahullah'
p6984
sg4
I6
sa(dp6985
g2
S'halaljilbabi'
p6986
sg4
I6
sa(dp6987
g2
S'hanisibu'
p6988
sg4
I6
sa(dp6989
g2
S'hanzalaa'
p6990
sg4
I6
sa(dp6991
g2
S'happing'
p6992
sg4
I6
sa(dp6993
g2
S'harb'
p6994
sg4
I6
sa(dp6995
g2
S'harden'
p6996
sg4
I6
sa(dp6997
g2
S'harmed'
p6998
sg4
I6
sa(dp6999
g2
S'harryakh'
p7000
sg4
I6
sa(dp7001
g2
S'harshness'
p7002
sg4
I6
sa(dp7003
g2
S'hasan'
p7004
sg4
I6
sa(dp7005
g2
S'hashem'
p7006
sg4
I6
sa(dp7007
g2
S'hastened'
p7008
sg4
I6
sa(dp7009
g2
S'hatim'
p7010
sg4
I6
sa(dp7011
g2
S'hating'
p7012
sg4
I6
sa(dp7013
g2
S'hawalah'
p7014
sg4
I6
sa(dp7015
g2
S'hazm'
p7016
sg4
I6
sa(dp7017
g2
S'heal'
p7018
sg4
I6
sa(dp7019
g2
S'health'
p7020
sg4
I6
sa(dp7021
g2
S'heartless'
p7022
sg4
I6
sa(dp7023
g2
S'heavens'
p7024
sg4
I6
sa(dp7025
g2
S'hedge76'
p7026
sg4
I6
sa(dp7027
g2
S'helped'
p7028
sg4
I6
sa(dp7029
g2
S'hennings'
p7030
sg4
I6
sa(dp7031
g2
S'hezbollah'
p7032
sg4
I6
sa(dp7033
g2
S'hidayah'
p7034
sg4
I6
sa(dp7035
g2
S'hilarious'
p7036
sg4
I6
sa(dp7037
g2
S'hopefully'
p7038
sg4
I6
sa(dp7039
g2
S'hoping'
p7040
sg4
I6
sa(dp7041
g2
S'horrible'
p7042
sg4
I6
sa(dp7043
g2
S'horror'
p7044
sg4
I6
sa(dp7045
g2
S'hs'
p7046
sg4
I6
sa(dp7047
g2
S'httpstco7ckc1nf5t5'
p7048
sg4
I6
sa(dp7049
g2
S'httpstcokolsl6ppb3'
p7050
sg4
I6
sa(dp7051
g2
S'hudood'
p7052
sg4
I6
sa(dp7053
g2
S'humam'
p7054
sg4
I6
sa(dp7055
g2
S'humanitarian'
p7056
sg4
I6
sa(dp7057
g2
S'humans'
p7058
sg4
I6
sa(dp7059
g2
S'humiliate'
p7060
sg4
I6
sa(dp7061
g2
S'humility'
p7062
sg4
I6
sa(dp7063
g2
S'hunger'
p7064
sg4
I6
sa(dp7065
g2
S'hurtful'
p7066
sg4
I6
sa(dp7067
g2
S'hurts'
p7068
sg4
I6
sa(dp7069
g2
S'husayn'
p7070
sg4
I6
sa(dp7071
g2
S'hxhassan'
p7072
sg4
I6
sa(dp7073
g2
S'ibnufulaan1'
p7074
sg4
I6
sa(dp7075
g2
S'ibraheem'
p7076
sg4
I6
sa(dp7077
g2
S'ideologies'
p7078
sg4
I6
sa(dp7079
g2
S'idf'
p7080
sg4
I6
sa(dp7081
g2
S'idk'
p7082
sg4
I6
sa(dp7083
g2
S'ignored'
p7084
sg4
I6
sa(dp7085
g2
S'illogical'
p7086
sg4
I6
sa(dp7087
g2
S'imaam'
p7088
sg4
I6
sa(dp7089
g2
S'imams'
p7090
sg4
I6
sa(dp7091
g2
S'implementing'
p7092
sg4
I6
sa(dp7093
g2
S'includes'
p7094
sg4
I6
sa(dp7095
g2
S'india'
p7096
sg4
I6
sa(dp7097
g2
S'indonesian'
p7098
sg4
I6
sa(dp7099
g2
S'inhouse'
p7100
sg4
I6
sa(dp7101
g2
S'insight'
p7102
sg4
I6
sa(dp7103
g2
S'inspecting'
p7104
sg4
I6
sa(dp7105
g2
S'intervene'
p7106
sg4
I6
sa(dp7107
g2
S'interviews'
p7108
sg4
I6
sa(dp7109
g2
S'invaded'
p7110
sg4
I6
sa(dp7111
g2
S'invading'
p7112
sg4
I6
sa(dp7113
g2
S'investigation'
p7114
sg4
I6
sa(dp7115
g2
S'irjaslayer'
p7116
sg4
I6
sa(dp7117
g2
S'isf'
p7118
sg4
I6
sa(dp7119
g2
S'isiss'
p7120
sg4
I6
sa(dp7121
g2
S'isistraitors'
p7122
sg4
I6
sa(dp7123
g2
S'islaam'
p7124
sg4
I6
sa(dp7125
g2
S'islamiccaliphate'
p7126
sg4
I6
sa(dp7127
g2
S'islamicfront'
p7128
sg4
I6
sa(dp7129
g2
S'islamists'
p7130
sg4
I6
sa(dp7131
g2
S'israelis'
p7132
sg4
I6
sa(dp7133
g2
S'issued'
p7134
sg4
I6
sa(dp7135
g2
S'iyaaki'
p7136
sg4
I6
sa(dp7137
g2
S'jahl'
p7138
sg4
I6
sa(dp7139
g2
S'jamat'
p7140
sg4
I6
sa(dp7141
g2
S'january'
p7142
sg4
I6
sa(dp7143
g2
S'jawlanis'
p7144
sg4
I6
sa(dp7145
g2
S'jerusalem'
p7146
sg4
I6
sa(dp7147
g2
S'jhufeng'
p7148
sg4
I6
sa(dp7149
g2
S'jisis'
p7150
sg4
I6
sa(dp7151
g2
S'joaska'
p7152
sg4
I6
sa(dp7153
g2
S'johnkerry'
p7154
sg4
I6
sa(dp7155
g2
S'jordanian'
p7156
sg4
I6
sa(dp7157
g2
S'joulani'
p7158
sg4
I6
sa(dp7159
g2
S'journalists'
p7160
sg4
I6
sa(dp7161
g2
S'jowlani'
p7162
sg4
I6
sa(dp7163
g2
S'junud'
p7164
sg4
I6
sa(dp7165
g2
S'jus'
p7166
sg4
I6
sa(dp7167
g2
S'justification'
p7168
sg4
I6
sa(dp7169
g2
S'kandahar'
p7170
sg4
I6
sa(dp7171
g2
S'keeping'
p7172
sg4
I6
sa(dp7173
g2
S'kenya'
p7174
sg4
I6
sa(dp7175
g2
S'khalaf'
p7176
sg4
I6
sa(dp7177
g2
S'khaledsigsauer'
p7178
sg4
I6
sa(dp7179
g2
S'khariji'
p7180
sg4
I6
sa(dp7181
g2
S'khuraasani'
p7182
sg4
I6
sa(dp7183
g2
S'khwrij'
p7184
sg4
I6
sa(dp7185
g2
S'kinda'
p7186
sg4
I6
sa(dp7187
g2
S'kingj004'
p7188
sg4
I6
sa(dp7189
g2
S'kittens'
p7190
sg4
I6
sa(dp7191
g2
S'knowledgeable'
p7192
sg4
I6
sa(dp7193
g2
S'kuffars'
p7194
sg4
I6
sa(dp7195
g2
S'kuffs'
p7196
sg4
I6
sa(dp7197
g2
S'kurdishgirl01'
p7198
sg4
I6
sa(dp7199
g2
S'laa'
p7200
sg4
I6
sa(dp7201
g2
S'ladin'
p7202
sg4
I6
sa(dp7203
g2
S'latter'
p7204
sg4
I6
sa(dp7205
g2
S'launched'
p7206
sg4
I6
sa(dp7207
g2
S'laws'
p7208
sg4
I6
sa(dp7209
g2
S'layman'
p7210
sg4
I6
sa(dp7211
g2
S'laysalghareeb'
p7212
sg4
I6
sa(dp7213
g2
S'lean'
p7214
sg4
I6
sa(dp7215
g2
S'lebanese'
p7216
sg4
I6
sa(dp7217
g2
S'lectures'
p7218
sg4
I6
sa(dp7219
g2
S'legislated'
p7220
sg4
I6
sa(dp7221
g2
S'letters'
p7222
sg4
I6
sa(dp7223
g2
S'levels'
p7224
sg4
I6
sa(dp7225
g2
S'lier'
p7226
sg4
I6
sa(dp7227
g2
S'lightly'
p7228
sg4
I6
sa(dp7229
g2
S'lillahi'
p7230
sg4
I6
sa(dp7231
g2
S'limited'
p7232
sg4
I6
sa(dp7233
g2
S'literally'
p7234
sg4
I6
sa(dp7235
g2
S'living4jihad'
p7236
sg4
I6
sa(dp7237
g2
S'locations'
p7238
sg4
I6
sa(dp7239
g2
S'logo'
p7240
sg4
I6
sa(dp7241
g2
S'lookin4aladdin'
p7242
sg4
I6
sa(dp7243
g2
S'lov'
p7244
sg4
I6
sa(dp7245
g2
S'loving'
p7246
sg4
I6
sa(dp7247
g2
S'loyal'
p7248
sg4
I6
sa(dp7249
g2
S'loyalty'
p7250
sg4
I6
sa(dp7251
g2
S'ltltlt'
p7252
sg4
I6
sa(dp7253
g2
S'madkhalis'
p7254
sg4
I6
sa(dp7255
g2
S'magazine'
p7256
sg4
I6
sa(dp7257
g2
S'mahrada'
p7258
sg4
I6
sa(dp7259
g2
S'majlis'
p7260
sg4
I6
sa(dp7261
g2
S'maker'
p7262
sg4
I6
sa(dp7263
g2
S'mali'
p7264
sg4
I6
sa(dp7265
g2
S'managed'
p7266
sg4
I6
sa(dp7267
g2
S'mandhara24'
p7268
sg4
I6
sa(dp7269
g2
S'mannwasalwah'
p7270
sg4
I6
sa(dp7271
g2
S'mans'
p7272
sg4
I6
sa(dp7273
g2
S'mansoorah'
p7274
sg4
I6
sa(dp7275
g2
S'maqidisi'
p7276
sg4
I6
sa(dp7277
g2
S'maria'
p7278
sg4
I6
sa(dp7279
g2
S'martyed'
p7280
sg4
I6
sa(dp7281
g2
S'marwouantounsi'
p7282
sg4
I6
sa(dp7283
g2
S'mashayekh'
p7284
sg4
I6
sa(dp7285
g2
S'maslaha'
p7286
sg4
I6
sa(dp7287
g2
S'mb'
p7288
sg4
I6
sa(dp7289
g2
S'meanwhile'
p7290
sg4
I6
sa(dp7291
g2
S'measure'
p7292
sg4
I6
sa(dp7293
g2
S'meat'
p7294
sg4
I6
sa(dp7295
g2
S'medical'
p7296
sg4
I6
sa(dp7297
g2
S'melbourne'
p7298
sg4
I6
sa(dp7299
g2
S'memory'
p7300
sg4
I6
sa(dp7301
g2
S'messengers'
p7302
sg4
I6
sa(dp7303
g2
S'messing'
p7304
sg4
I6
sa(dp7305
g2
S'mhesne'
p7306
sg4
I6
sa(dp7307
g2
S'mi'
p7308
sg4
I6
sa(dp7309
g2
S'mig'
p7310
sg4
I6
sa(dp7311
g2
S'militia'
p7312
sg4
I6
sa(dp7313
g2
S'million'
p7314
sg4
I6
sa(dp7315
g2
S'min'
p7316
sg4
I6
sa(dp7317
g2
S'mindset'
p7318
sg4
I6
sa(dp7319
g2
S'minute'
p7320
sg4
I6
sa(dp7321
g2
S'miracle'
p7322
sg4
I6
sa(dp7323
g2
S'miracles'
p7324
sg4
I6
sa(dp7325
g2
S'misinformed'
p7326
sg4
I6
sa(dp7327
g2
S'missiles'
p7328
sg4
I6
sa(dp7329
g2
S'mjhdn'
p7330
sg4
I6
sa(dp7331
g2
S'mny'
p7332
sg4
I6
sa(dp7333
g2
S'mo'
p7334
sg4
I6
sa(dp7335
g2
S'mock'
p7336
sg4
I6
sa(dp7337
g2
S'mogadishu'
p7338
sg4
I6
sa(dp7339
g2
S'mohammedghazzal'
p7340
sg4
I6
sa(dp7341
g2
S'moreover'
p7342
sg4
I6
sa(dp7343
g2
S'motives'
p7344
sg4
I6
sa(dp7345
g2
S'moving'
p7346
sg4
I6
sa(dp7347
g2
S'mozimmalh'
p7348
sg4
I6
sa(dp7349
g2
S'muha'
p7350
sg4
I6
sa(dp7351
g2
S'muhajirin'
p7352
sg4
I6
sa(dp7353
g2
S'mujahid4life'
p7354
sg4
I6
sa(dp7355
g2
S'mujhid'
p7356
sg4
I6
sa(dp7357
g2
S'munir'
p7358
sg4
I6
sa(dp7359
g2
S'munzir'
p7360
sg4
I6
sa(dp7361
g2
S'murderer'
p7362
sg4
I6
sa(dp7363
g2
S'murjih'
p7364
sg4
I6
sa(dp7365
g2
S'murtaddeen'
p7366
sg4
I6
sa(dp7367
g2
S'mushrikeen'
p7368
sg4
I6
sa(dp7369
g2
S'musl'
p7370
sg4
I6
sa(dp7371
g2
S'muslimthey'
p7372
sg4
I6
sa(dp7373
g2
S'musnad'
p7374
sg4
I6
sa(dp7375
g2
S'mustafaam'
p7376
sg4
I6
sa(dp7377
g2
S'mydearmujahid'
p7378
sg4
I6
sa(dp7379
g2
S'myth'
p7380
sg4
I6
sa(dp7381
g2
S'narration'
p7382
sg4
I6
sa(dp7383
g2
S'naseeha'
p7384
sg4
I6
sa(dp7385
g2
S'naser'
p7386
sg4
I6
sa(dp7387
g2
S'nashid'
p7388
sg4
I6
sa(dp7389
g2
S'nato'
p7390
sg4
I6
sa(dp7391
g2
S'nearly'
p7392
sg4
I6
sa(dp7393
g2
S'necessity'
p7394
sg4
I6
sa(dp7395
g2
S'neck'
p7396
sg4
I6
sa(dp7397
g2
S'needy'
p7398
sg4
I6
sa(dp7399
g2
S'negotiate'
p7400
sg4
I6
sa(dp7401
g2
S'neutral'
p7402
sg4
I6
sa(dp7403
g2
S'newly'
p7404
sg4
I6
sa(dp7405
g2
S'nope'
p7406
sg4
I6
sa(dp7407
g2
S'nowadays'
p7408
sg4
I6
sa(dp7409
g2
S'numbers'
p7410
sg4
I6
sa(dp7411
g2
S'occupied'
p7412
sg4
I6
sa(dp7413
g2
S'offcourse'
p7414
sg4
I6
sa(dp7415
g2
S'officialmohsin'
p7416
sg4
I6
sa(dp7417
g2
S'ogdenady'
p7418
sg4
I6
sa(dp7419
g2
S'oneverse'
p7420
sg4
I6
sa(dp7421
g2
S'opinions'
p7422
sg4
I6
sa(dp7423
g2
S'opponents'
p7424
sg4
I6
sa(dp7425
g2
S'opposed'
p7426
sg4
I6
sa(dp7427
g2
S'ordered'
p7428
sg4
I6
sa(dp7429
g2
S'originally'
p7430
sg4
I6
sa(dp7431
g2
S'outlook'
p7432
sg4
I6
sa(dp7433
g2
S'outspokensister'
p7434
sg4
I6
sa(dp7435
g2
S'overnight'
p7436
sg4
I6
sa(dp7437
g2
S'painful'
p7438
sg4
I6
sa(dp7439
g2
S'palestinians'
p7440
sg4
I6
sa(dp7441
g2
S'panadriam'
p7442
sg4
I6
sa(dp7443
g2
S'panel'
p7444
sg4
I6
sa(dp7445
g2
S'pants'
p7446
sg4
I6
sa(dp7447
g2
S'parties'
p7448
sg4
I6
sa(dp7449
g2
S'pays'
p7450
sg4
I6
sa(dp7451
g2
S'peak'
p7452
sg4
I6
sa(dp7453
g2
S'perfectly'
p7454
sg4
I6
sa(dp7455
g2
S'performed'
p7456
sg4
I6
sa(dp7457
g2
S'permissible'
p7458
sg4
I6
sa(dp7459
g2
S'persian'
p7460
sg4
I6
sa(dp7461
g2
S'peshmerga'
p7462
sg4
I6
sa(dp7463
g2
S'phd'
p7464
sg4
I6
sa(dp7465
g2
S'phoney'
p7466
sg4
I6
sa(dp7467
g2
S'pilots'
p7468
sg4
I6
sa(dp7469
g2
S'pious'
p7470
sg4
I6
sa(dp7471
g2
S'pkkypg'
p7472
sg4
I6
sa(dp7473
g2
S'planners'
p7474
sg4
I6
sa(dp7475
g2
S'platform'
p7476
sg4
I6
sa(dp7477
g2
S'plea'
p7478
sg4
I6
sa(dp7479
g2
S'pm'
p7480
sg4
I6
sa(dp7481
g2
S'pocket'
p7482
sg4
I6
sa(dp7483
g2
S'poison'
p7484
sg4
I6
sa(dp7485
g2
S'policy'
p7486
sg4
I6
sa(dp7487
g2
S'positive'
p7488
sg4
I6
sa(dp7489
g2
S'practice'
p7490
sg4
I6
sa(dp7491
g2
S'praising'
p7492
sg4
I6
sa(dp7493
g2
S'prays'
p7494
sg4
I6
sa(dp7495
g2
S'pre'
p7496
sg4
I6
sa(dp7497
g2
S'preacher'
p7498
sg4
I6
sa(dp7499
g2
S'preaching'
p7500
sg4
I6
sa(dp7501
g2
S'preparation'
p7502
sg4
I6
sa(dp7503
g2
S'preparing'
p7504
sg4
I6
sa(dp7505
g2
S'president'
p7506
sg4
I6
sa(dp7507
g2
S'prob'
p7508
sg4
I6
sa(dp7509
g2
S'project'
p7510
sg4
I6
sa(dp7511
g2
S'promised'
p7512
sg4
I6
sa(dp7513
g2
S'promising'
p7514
sg4
I6
sa(dp7515
g2
S'promoted'
p7516
sg4
I6
sa(dp7517
g2
S'proofs'
p7518
sg4
I6
sa(dp7519
g2
S'property'
p7520
sg4
I6
sa(dp7521
g2
S'prophethood'
p7522
sg4
I6
sa(dp7523
g2
S'prophetic'
p7524
sg4
I6
sa(dp7525
g2
S'prophetssaid'
p7526
sg4
I6
sa(dp7527
g2
S'protecting'
p7528
sg4
I6
sa(dp7529
g2
S'protectors'
p7530
sg4
I6
sa(dp7531
g2
S'proves'
p7532
sg4
I6
sa(dp7533
g2
S'providence'
p7534
sg4
I6
sa(dp7535
g2
S'providing'
p7536
sg4
I6
sa(dp7537
g2
S'publicly'
p7538
sg4
I6
sa(dp7539
g2
S'puppet'
p7540
sg4
I6
sa(dp7541
g2
S'puppets'
p7542
sg4
I6
sa(dp7543
g2
S'push'
p7544
sg4
I6
sa(dp7545
g2
S'qadhi'
p7546
sg4
I6
sa(dp7547
g2
S'qalamon'
p7548
sg4
I6
sa(dp7549
g2
S'qalmoon'
p7550
sg4
I6
sa(dp7551
g2
S'qassamenglish'
p7552
sg4
I6
sa(dp7553
g2
S'qs'
p7554
sg4
I6
sa(dp7555
g2
S'qunaitirah'
p7556
sg4
I6
sa(dp7557
g2
S'quraan'
p7558
sg4
I6
sa(dp7559
g2
S'quwatta'
p7560
sg4
I6
sa(dp7561
g2
S'rabaish'
p7562
sg4
I6
sa(dp7563
g2
S'raf'
p7564
sg4
I6
sa(dp7565
g2
S'rafidah'
p7566
sg4
I6
sa(dp7567
g2
S'rahman'
p7568
sg4
I6
sa(dp7569
g2
S'rain'
p7570
sg4
I6
sa(dp7571
g2
S'raises'
p7572
sg4
I6
sa(dp7573
g2
S'raising'
p7574
sg4
I6
sa(dp7575
g2
S'rally'
p7576
sg4
I6
sa(dp7577
g2
S'ramiallolah'
p7578
sg4
I6
sa(dp7579
g2
S'reach'
p7580
sg4
I6
sa(dp7581
g2
S'reaction'
p7582
sg4
I6
sa(dp7583
g2
S'realize'
p7584
sg4
I6
sa(dp7585
g2
S'receiving'
p7586
sg4
I6
sa(dp7587
g2
S'recommend'
p7588
sg4
I6
sa(dp7589
g2
S'recruits'
p7590
sg4
I6
sa(dp7591
g2
S'reestablished'
p7592
sg4
I6
sa(dp7593
g2
S'ref'
p7594
sg4
I6
sa(dp7595
g2
S'refrshmnts'
p7596
sg4
I6
sa(dp7597
g2
S'refugee'
p7598
sg4
I6
sa(dp7599
g2
S'refutation'
p7600
sg4
I6
sa(dp7601
g2
S'regain'
p7602
sg4
I6
sa(dp7603
g2
S'relation'
p7604
sg4
I6
sa(dp7605
g2
S'relations'
p7606
sg4
I6
sa(dp7607
g2
S'relieve'
p7608
sg4
I6
sa(dp7609
g2
S'replies'
p7610
sg4
I6
sa(dp7611
g2
S'reporter'
p7612
sg4
I6
sa(dp7613
g2
S'represent'
p7614
sg4
I6
sa(dp7615
g2
S'reputation'
p7616
sg4
I6
sa(dp7617
g2
S'requires'
p7618
sg4
I6
sa(dp7619
g2
S'respected'
p7620
sg4
I6
sa(dp7621
g2
S'responses'
p7622
sg4
I6
sa(dp7623
g2
S'restaurant'
p7624
sg4
I6
sa(dp7625
g2
S'returned'
p7626
sg4
I6
sa(dp7627
g2
S'retweeting'
p7628
sg4
I6
sa(dp7629
g2
S'reuters'
p7630
sg4
I6
sa(dp7631
g2
S'revelation'
p7632
sg4
I6
sa(dp7633
g2
S'revolution'
p7634
sg4
I6
sa(dp7635
g2
S'rich'
p7636
sg4
I6
sa(dp7637
g2
S'rise'
p7638
sg4
I6
sa(dp7639
g2
S'rising'
p7640
sg4
I6
sa(dp7641
g2
S'robin'
p7642
sg4
I6
sa(dp7643
g2
S'rocket'
p7644
sg4
I6
sa(dp7645
g2
S'rockets'
p7646
sg4
I6
sa(dp7647
g2
S'rome'
p7648
sg4
I6
sa(dp7649
g2
S'roost'
p7650
sg4
I6
sa(dp7651
g2
S'roots'
p7652
sg4
I6
sa(dp7653
g2
S'rtawheed1'
p7654
sg4
I6
sa(dp7655
g2
S'rubbish'
p7656
sg4
I6
sa(dp7657
g2
S'rubble'
p7658
sg4
I6
sa(dp7659
g2
S'rudol9h'
p7660
sg4
I6
sa(dp7661
g2
S'ruwaybidah'
p7662
sg4
I6
sa(dp7663
g2
S'saad'
p7664
sg4
I6
sa(dp7665
g2
S'sadaqah'
p7666
sg4
I6
sa(dp7667
g2
S'sahabah'
p7668
sg4
I6
sa(dp7669
g2
S'sahabi'
p7670
sg4
I6
sa(dp7671
g2
S'saidthe'
p7672
sg4
I6
sa(dp7673
g2
S'salaah'
p7674
sg4
I6
sa(dp7675
g2
S'salallahu'
p7676
sg4
I6
sa(dp7677
g2
S'salaxuden'
p7678
sg4
I6
sa(dp7679
g2
S'salim'
p7680
sg4
I6
sa(dp7681
g2
S'salul'
p7682
sg4
I6
sa(dp7683
g2
S'salvation'
p7684
sg4
I6
sa(dp7685
g2
S'samayahadi'
p7686
sg4
I6
sa(dp7687
g2
S'sami'
p7688
sg4
I6
sa(dp7689
g2
S'sanctity'
p7690
sg4
I6
sa(dp7691
g2
S'saraqeb'
p7692
sg4
I6
sa(dp7693
g2
S'saud'
p7694
sg4
I6
sa(dp7695
g2
S'saudis'
p7696
sg4
I6
sa(dp7697
g2
S'savages'
p7698
sg4
I6
sa(dp7699
g2
S'scary'
p7700
sg4
I6
sa(dp7701
g2
S'science'
p7702
sg4
I6
sa(dp7703
g2
S'sect'
p7704
sg4
I6
sa(dp7705
g2
S'seekingajr'
p7706
sg4
I6
sa(dp7707
g2
S'selfreminder'
p7708
sg4
I6
sa(dp7709
g2
S'sell'
p7710
sg4
I6
sa(dp7711
g2
S'sentenced'
p7712
sg4
I6
sa(dp7713
g2
S'september'
p7714
sg4
I6
sa(dp7715
g2
S'sequel'
p7716
sg4
I6
sa(dp7717
g2
S'setting'
p7718
sg4
I6
sa(dp7719
g2
S'shadow043'
p7720
sg4
I6
sa(dp7721
g2
S'sharing'
p7722
sg4
I6
sa(dp7723
g2
S'shed'
p7724
sg4
I6
sa(dp7725
g2
S'sheik'
p7726
sg4
I6
sa(dp7727
g2
S'shell'
p7728
sg4
I6
sa(dp7729
g2
S'shias'
p7730
sg4
I6
sa(dp7731
g2
S'shiite'
p7732
sg4
I6
sa(dp7733
g2
S'shoot'
p7734
sg4
I6
sa(dp7735
g2
S'shown'
p7736
sg4
I6
sa(dp7737
g2
S'shut'
p7738
sg4
I6
sa(dp7739
g2
S'siding'
p7740
sg4
I6
sa(dp7741
g2
S'silos'
p7742
sg4
I6
sa(dp7743
g2
S'sindh'
p7744
sg4
I6
sa(dp7745
g2
S'sitthisoneout'
p7746
sg4
I6
sa(dp7747
g2
S'sjs'
p7748
sg4
I6
sa(dp7749
g2
S'skills'
p7750
sg4
I6
sa(dp7751
g2
S'slip'
p7752
sg4
I6
sa(dp7753
g2
S'slow'
p7754
sg4
I6
sa(dp7755
g2
S'softness'
p7756
sg4
I6
sa(dp7757
g2
S'solders'
p7758
sg4
I6
sa(dp7759
g2
S'somebody'
p7760
sg4
I6
sa(dp7761
g2
S'sonin'
p7762
sg4
I6
sa(dp7763
g2
S'sons'
p7764
sg4
I6
sa(dp7765
g2
S'south'
p7766
sg4
I6
sa(dp7767
g2
S'spain'
p7768
sg4
I6
sa(dp7769
g2
S'speaker'
p7770
sg4
I6
sa(dp7771
g2
S'specific'
p7772
sg4
I6
sa(dp7773
g2
S'specifically'
p7774
sg4
I6
sa(dp7775
g2
S'spell'
p7776
sg4
I6
sa(dp7777
g2
S'spends'
p7778
sg4
I6
sa(dp7779
g2
S'spoil'
p7780
sg4
I6
sa(dp7781
g2
S'spoils'
p7782
sg4
I6
sa(dp7783
g2
S'spy'
p7784
sg4
I6
sa(dp7785
g2
S'st'
p7786
sg4
I6
sa(dp7787
g2
S'stances'
p7788
sg4
I6
sa(dp7789
g2
S'station'
p7790
sg4
I6
sa(dp7791
g2
S'steadfastness'
p7792
sg4
I6
sa(dp7793
g2
S'steal'
p7794
sg4
I6
sa(dp7795
g2
S'stern'
p7796
sg4
I6
sa(dp7797
g2
S'stops'
p7798
sg4
I6
sa(dp7799
g2
S'strategy'
p7800
sg4
I6
sa(dp7801
g2
S'strengthen'
p7802
sg4
I6
sa(dp7803
g2
S'strict'
p7804
sg4
I6
sa(dp7805
g2
S'striking'
p7806
sg4
I6
sa(dp7807
g2
S'struggle'
p7808
sg4
I6
sa(dp7809
g2
S'sub'
p7810
sg4
I6
sa(dp7811
g2
S'subhaanallah'
p7812
sg4
I6
sa(dp7813
g2
S'submit'
p7814
sg4
I6
sa(dp7815
g2
S'submitting'
p7816
sg4
I6
sa(dp7817
g2
S'subuhanalaah'
p7818
sg4
I6
sa(dp7819
g2
S'subuhanalah'
p7820
sg4
I6
sa(dp7821
g2
S'successful'
p7822
sg4
I6
sa(dp7823
g2
S'sufyanislayer'
p7824
sg4
I6
sa(dp7825
g2
S'suggest'
p7826
sg4
I6
sa(dp7827
g2
S'suitable'
p7828
sg4
I6
sa(dp7829
g2
S'suits'
p7830
sg4
I6
sa(dp7831
g2
S'sulaiman'
p7832
sg4
I6
sa(dp7833
g2
S'suleiman'
p7834
sg4
I6
sa(dp7835
g2
S'sultan'
p7836
sg4
I6
sa(dp7837
g2
S'sum'
p7838
sg4
I6
sa(dp7839
g2
S'sun'
p7840
sg4
I6
sa(dp7841
g2
S'supersaj786'
p7842
sg4
I6
sa(dp7843
g2
S'suppose'
p7844
sg4
I6
sa(dp7845
g2
S'supreme'
p7846
sg4
I6
sa(dp7847
g2
S'surrounded'
p7848
sg4
I6
sa(dp7849
g2
S'suspect'
p7850
sg4
I6
sa(dp7851
g2
S'suspicion'
p7852
sg4
I6
sa(dp7853
g2
S'swear'
p7854
sg4
I6
sa(dp7855
g2
S'sweet'
p7856
sg4
I6
sa(dp7857
g2
S'tabqa'
p7858
sg4
I6
sa(dp7859
g2
S'taftanaz'
p7860
sg4
I6
sa(dp7861
g2
S'tahajjud'
p7862
sg4
I6
sa(dp7863
g2
S'takbeer'
p7864
sg4
I6
sa(dp7865
g2
S'takbir'
p7866
sg4
I6
sa(dp7867
g2
S'takeover'
p7868
sg4
I6
sa(dp7869
g2
S'takfeerism'
p7870
sg4
I6
sa(dp7871
g2
S'takfiri'
p7872
sg4
I6
sa(dp7873
g2
S'tall'
p7874
sg4
I6
sa(dp7875
g2
S'tank'
p7876
sg4
I6
sa(dp7877
g2
S'tarek'
p7878
sg4
I6
sa(dp7879
g2
S'tariqhaleem'
p7880
sg4
I6
sa(dp7881
g2
S'task'
p7882
sg4
I6
sa(dp7883
g2
S'taweel'
p7884
sg4
I6
sa(dp7885
g2
S'te'
p7886
sg4
I6
sa(dp7887
g2
S'tears'
p7888
sg4
I6
sa(dp7889
g2
S'tellmammauk'
p7890
sg4
I6
sa(dp7891
g2
S'tend'
p7892
sg4
I6
sa(dp7893
g2
S'term'
p7894
sg4
I6
sa(dp7895
g2
S'terrifies'
p7896
sg4
I6
sa(dp7897
g2
S'territory'
p7898
sg4
I6
sa(dp7899
g2
S'thebase'
p7900
sg4
I6
sa(dp7901
g2
S'thief'
p7902
sg4
I6
sa(dp7903
g2
S'thieves'
p7904
sg4
I6
sa(dp7905
g2
S'third'
p7906
sg4
I6
sa(dp7907
g2
S'ths'
p7908
sg4
I6
sa(dp7909
g2
S'tht'
p7910
sg4
I6
sa(dp7911
g2
S'todays'
p7912
sg4
I6
sa(dp7913
g2
S'toilet'
p7914
sg4
I6
sa(dp7915
g2
S'touching'
p7916
sg4
I6
sa(dp7917
g2
S'tour'
p7918
sg4
I6
sa(dp7919
g2
S'trait'
p7920
sg4
I6
sa(dp7921
g2
S'traitor'
p7922
sg4
I6
sa(dp7923
g2
S'traitors'
p7924
sg4
I6
sa(dp7925
g2
S'treacherous'
p7926
sg4
I6
sa(dp7927
g2
S'tribute'
p7928
sg4
I6
sa(dp7929
g2
S'troublejee'
p7930
sg4
I6
sa(dp7931
g2
S'tru'
p7932
sg4
I6
sa(dp7933
g2
S'trustworthy'
p7934
sg4
I6
sa(dp7935
g2
S'tunnel'
p7936
sg4
I6
sa(dp7937
g2
S'twice'
p7938
sg4
I6
sa(dp7939
g2
S'twitterkurds'
p7940
sg4
I6
sa(dp7941
g2
S'ull'
p7942
sg4
I6
sa(dp7943
g2
S'ulterior'
p7944
sg4
I6
sa(dp7945
g2
S'ummammar'
p7946
sg4
I6
sa(dp7947
g2
S'ummata'
p7948
sg4
I6
sa(dp7949
g2
S'ummhussain103'
p7950
sg4
I6
sa(dp7951
g2
S'ummkhawla'
p7952
sg4
I6
sa(dp7953
g2
S'ummmuawiyahh'
p7954
sg4
I6
sa(dp7955
g2
S'ummusmaan1'
p7956
sg4
I6
sa(dp7957
g2
S'uncle'
p7958
sg4
I6
sa(dp7959
g2
S'unconfirmed'
p7960
sg4
I6
sa(dp7961
g2
S'unfortunately'
p7962
sg4
I6
sa(dp7963
g2
S'unto'
p7964
sg4
I6
sa(dp7965
g2
S'upcoming'
p7966
sg4
I6
sa(dp7967
g2
S'update'
p7968
sg4
I6
sa(dp7969
g2
S'uploaded'
p7970
sg4
I6
sa(dp7971
g2
S'usas'
p7972
sg4
I6
sa(dp7973
g2
S'usual'
p7974
sg4
I6
sa(dp7975
g2
S'uthaymeen'
p7976
sg4
I6
sa(dp7977
g2
S'value'
p7978
sg4
I6
sa(dp7979
g2
S'vehicle'
p7980
sg4
I6
sa(dp7981
g2
S'vids'
p7982
sg4
I6
sa(dp7983
g2
S'visit'
p7984
sg4
I6
sa(dp7985
g2
S'void'
p7986
sg4
I6
sa(dp7987
g2
S'volume'
p7988
sg4
I6
sa(dp7989
g2
S'vows'
p7990
sg4
I6
sa(dp7991
g2
S'vvanwilgenburg'
p7992
sg4
I6
sa(dp7993
g2
S'wafeeka'
p7994
sg4
I6
sa(dp7995
g2
S'wage'
p7996
sg4
I6
sa(dp7997
g2
S'wages'
p7998
sg4
I6
sa(dp7999
g2
S'waleed'
p8000
sg4
I6
sa(dp8001
g2
S'walhumdulillah'
p8002
sg4
I6
sa(dp8003
g2
S'walis'
p8004
sg4
I6
sa(dp8005
g2
S'warriors'
p8006
sg4
I6
sa(dp8007
g2
S'watcherone'
p8008
sg4
I6
sa(dp8009
g2
S'watchyourbackusa'
p8010
sg4
I6
sa(dp8011
g2
S'weaponry'
p8012
sg4
I6
sa(dp8013
g2
S'wen'
p8014
sg4
I6
sa(dp8015
g2
S'wer'
p8016
sg4
I6
sa(dp8017
g2
S'werent'
p8018
sg4
I6
sa(dp8019
g2
S'wheres'
p8020
sg4
I6
sa(dp8021
g2
S'whisper'
p8022
sg4
I6
sa(dp8023
g2
S'whitehouse'
p8024
sg4
I6
sa(dp8025
g2
S'wich'
p8026
sg4
I6
sa(dp8027
g2
S'wid'
p8028
sg4
I6
sa(dp8029
g2
S'winning'
p8030
sg4
I6
sa(dp8031
g2
S'wonderful'
p8032
sg4
I6
sa(dp8033
g2
S'works'
p8034
sg4
I6
sa(dp8035
g2
S'worldly'
p8036
sg4
I6
sa(dp8037
g2
S'worlds'
p8038
sg4
I6
sa(dp8039
g2
S'worshipers'
p8040
sg4
I6
sa(dp8041
g2
S'wow'
p8042
sg4
I6
sa(dp8043
g2
S'wudu'
p8044
sg4
I6
sa(dp8045
g2
S'x'
p8046
sg4
I6
sa(dp8047
g2
S'xish2k9'
p8048
sg4
I6
sa(dp8049
g2
S'yahya'
p8050
sg4
I6
sa(dp8051
g2
S'yaqub'
p8052
sg4
I6
sa(dp8053
g2
S'yazidis'
p8054
sg4
I6
sa(dp8055
g2
S'yo'
p8056
sg4
I6
sa(dp8057
g2
S'yusuf'
p8058
sg4
I6
sa(dp8059
g2
S'zina'
p8060
sg4
I6
sa(dp8061
g2
S'zionist'
p8062
sg4
I6
sa(dp8063
g2
S'zor'
p8064
sg4
I6
sa.