(dp0
Vbaufderhar
p1
(dp2
S'Trend'
p3
cnumpy.core.multiarray
scalar
p4
(cnumpy
dtype
p5
(S'b1'
p6
I0
I1
tp7
Rp8
(I3
S'|'
p9
NNNI-1
I-1
I0
tp10
bS'\x00'
p11
tp12
Rp13
sS'P Value'
p14
g4
(g5
(S'f8'
p15
I0
I1
tp16
Rp17
(I3
S'<'
p18
NNNI-1
I-1
I0
tp19
bS'\x0e6I\xea\x96\xd5\xe3?'
p20
tp21
Rp22
sS'Pearson Correlation'
p23
S'Strong positive relationship'
p24
sS'Pearson Correlation Statistic'
p25
g4
(g17
S'\xae\xc8\xfdIce\xdc?'
p26
tp27
Rp28
sS'Increasing or Decreasing Trend'
p29
S'N/A'
p30
ssVaheaney
p31
(dp32
g3
g4
(g8
S'\x01'
p33
tp34
Rp35
sg14
g4
(g17
S'\x00k\xba\x05\xd8\xf6\xd9?'
p36
tp37
Rp38
sg23
S'No or negligable relationship'
p39
sg25
g4
(g17
S'\xa2"\xf8\xb8iH\xae\xbf'
p40
tp41
Rp42
sg29
S'Decreasing'
p43
ss.