(lp0
(dp1
S'text'
p2
S'al'
p3
sS'size'
p4
I278
sa(dp5
g2
S'jn'
p6
sg4
I120
sa(dp7
g2
S'ibnnabih'
p8
sg4
I112
sa(dp9
g2
S'aleppo'
p10
sg4
I102
sa(dp11
g2
S'abu'
p12
sg4
I84
sa(dp13
g2
S'regime'
p14
sg4
I78
sa(dp15
g2
S'ahrar'
p16
sg4
I74
sa(dp17
g2
S'ansar'
p18
sg4
I68
sa(dp19
g2
S'sham'
p20
sg4
I66
sa(dp21
g2
S'amp'
p22
sg4
I64
sa(dp23
g2
S'killed'
p24
sg4
I62
sa(dp25
g2
S'mujahideen'
p26
sg4
I60
sa(dp27
g2
S'allah'
p28
sg4
I52
sa(dp29
g2
S'groups'
p30
sg4
I50
sa(dp31
g2
S'leader'
p32
sg4
I50
sa(dp33
g2
S'syria'
p34
sg4
I46
sa(dp35
g2
S'muslims'
p36
sg4
I44
sa(dp37
g2
S'http'
p38
sg4
I42
sa(dp39
g2
S'many'
p40
sg4
I42
sa(dp41
g2
S'group'
p42
sg4
I40
sa(dp43
g2
S'islamic'
p44
sg4
I40
sa(dp45
g2
S'jihad'
p46
sg4
I40
sa(dp47
g2
S'martyred'
p48
sg4
I40
sa(dp49
g2
S'bayah'
p50
sg4
I38
sa(dp51
g2
S'sh'
p52
sg4
I34
sa(dp53
g2
S'eid'
p54
sg4
I32
sa(dp55
g2
S'etc'
p56
sg4
I32
sa(dp57
g2
S'fighting'
p58
sg4
I32
sa(dp59
g2
S'new'
p60
sg4
I32
sa(dp61
g2
S'shabab'
p62
sg4
I32
sa(dp63
g2
S'khorasanwitness'
p64
sg4
I30
sa(dp65
g2
S'aq'
p66
sg4
I28
sa(dp67
g2
S'dont'
p68
sg4
I28
sa(dp69
g2
S'khalidmaghrebi'
p70
sg4
I28
sa(dp71
g2
S'said'
p72
sg4
I28
sa(dp73
g2
S'shamiwitness'
p74
sg4
I28
sa(dp75
g2
S'state'
p76
sg4
I28
sa(dp77
g2
S'httpt'
p78
sg4
I26
sa(dp79
g2
S'yemen'
p80
sg4
I26
sa(dp81
g2
S'b'
p82
sg4
I24
sa(dp83
g2
S'captured'
p84
sg4
I24
sa(dp85
g2
S'even'
p86
sg4
I24
sa(dp87
g2
S'isis'
p88
sg4
I24
sa(dp89
g2
S'military'
p90
sg4
I24
sa(dp91
g2
S'people'
p92
sg4
I24
sa(dp93
g2
S'sharia'
p94
sg4
I24
sa(dp95
g2
S'breaking'
p96
sg4
I22
sa(dp97
g2
S'deen'
p98
sg4
I22
sa(dp99
g2
S'fighters'
p100
sg4
I22
sa(dp101
g2
S'front'
p102
sg4
I22
sa(dp103
g2
S'islam'
p104
sg4
I22
sa(dp105
g2
S'joined'
p106
sg4
I22
sa(dp107
g2
S'muslim'
p108
sg4
I22
sa(dp109
g2
S'support'
p110
sg4
I22
sa(dp111
g2
S'time'
p112
sg4
I22
sa(dp113
g2
S'way'
p114
sg4
I22
sa(dp115
g2
S'apostates'
p116
sg4
I20
sa(dp117
g2
S'aqap'
p118
sg4
I20
sa(dp119
g2
S'attack'
p120
sg4
I20
sa(dp121
g2
S'https'
p122
sg4
I20
sa(dp123
g2
S'idlib'
p124
sg4
I20
sa(dp125
g2
S'maliwitness'
p126
sg4
I20
sa(dp127
g2
S'mujahid'
p128
sg4
I20
sa(dp129
g2
S'nusayri'
p130
sg4
I20
sa(dp131
g2
S'nusrah'
p132
sg4
I20
sa(dp133
g2
S'reef'
p134
sg4
I20
sa(dp135
g2
S'want'
p136
sg4
I20
sa(dp137
g2
S'attacking'
p138
sg4
I18
sa(dp139
g2
S'fighter'
p140
sg4
I18
sa(dp141
g2
S'killing'
p142
sg4
I18
sa(dp143
g2
S'muhajireen'
p144
sg4
I18
sa(dp145
g2
S'observermiddle'
p146
sg4
I18
sa(dp147
g2
S'somalia'
p148
sg4
I18
sa(dp149
g2
S'taliban'
p150
sg4
I18
sa(dp151
g2
S'tasneem4321'
p152
sg4
I18
sa(dp153
g2
S'today'
p154
sg4
I18
sa(dp155
g2
S'turkey'
p156
sg4
I18
sa(dp157
g2
S'turkwitness'
p158
sg4
I18
sa(dp159
g2
S'alnusrah'
p160
sg4
I16
sa(dp161
g2
S'brothers'
p162
sg4
I16
sa(dp163
g2
S'camp'
p164
sg4
I16
sa(dp165
g2
S'doesnt'
p166
sg4
I16
sa(dp167
g2
S'fight'
p168
sg4
I16
sa(dp169
g2
S'fitna'
p170
sg4
I16
sa(dp171
g2
S'give'
p172
sg4
I16
sa(dp173
g2
S'got'
p174
sg4
I16
sa(dp175
g2
S'handrat'
p176
sg4
I16
sa(dp177
g2
S'image'
p178
sg4
I16
sa(dp179
g2
S'jabhat'
p180
sg4
I16
sa(dp181
g2
S'kuffar'
p182
sg4
I16
sa(dp183
g2
S'libya'
p184
sg4
I16
sa(dp185
g2
S'made'
p186
sg4
I16
sa(dp187
g2
S'make'
p188
sg4
I16
sa(dp189
g2
S'muhajir'
p190
sg4
I16
sa(dp191
g2
S'near'
p192
sg4
I16
sa(dp193
g2
S'points'
p194
sg4
I16
sa(dp195
g2
S'soldiers'
p196
sg4
I16
sa(dp197
g2
S'syrian'
p198
sg4
I16
sa(dp199
g2
S'yesterday'
p200
sg4
I16
sa(dp201
g2
S'accept'
p202
sg4
I14
sa(dp203
g2
S'alsharia'
p204
sg4
I14
sa(dp205
g2
S'b4'
p206
sg4
I14
sa(dp207
g2
S'battle'
p208
sg4
I14
sa(dp209
g2
S'cant'
p210
sg4
I14
sa(dp211
g2
S'court'
p212
sg4
I14
sa(dp213
g2
S'days'
p214
sg4
I14
sa(dp215
g2
S'doubt'
p216
sg4
I14
sa(dp217
g2
S'free'
p218
sg4
I14
sa(dp219
g2
S'hara'
p220
sg4
I14
sa(dp221
g2
S'justify'
p222
sg4
I14
sa(dp223
g2
S'last'
p224
sg4
I14
sa(dp225
g2
S'muhajirishaam01'
p226
sg4
I14
sa(dp227
g2
S'muhammad'
p228
sg4
I14
sa(dp229
g2
S'scholars'
p230
sg4
I14
sa(dp231
g2
S'shabiha'
p232
sg4
I14
sa(dp233
g2
S'shar3i'
p234
sg4
I14
sa(dp235
g2
S'shaykh'
p236
sg4
I14
sa(dp237
g2
S'soon'
p238
sg4
I14
sa(dp239
g2
S'telat'
p240
sg4
I14
sa(dp241
g2
S'video'
p242
sg4
I14
sa(dp243
g2
S'zour'
p244
sg4
I14
sa(dp245
g2
S'account'
p246
sg4
I12
sa(dp247
g2
S'ago'
p248
sg4
I12
sa(dp249
g2
S'ask'
p250
sg4
I12
sa(dp251
g2
S'battles'
p252
sg4
I12
sa(dp253
g2
S'began'
p254
sg4
I12
sa(dp255
g2
S'best'
p256
sg4
I12
sa(dp257
g2
S'biggest'
p258
sg4
I12
sa(dp259
g2
S'called'
p260
sg4
I12
sa(dp261
g2
S'death'
p262
sg4
I12
sa(dp263
g2
S'enemies'
p264
sg4
I12
sa(dp265
g2
S'example'
p266
sg4
I12
sa(dp267
g2
S'first'
p268
sg4
I12
sa(dp269
g2
S'houthi'
p270
sg4
I12
sa(dp271
g2
S'houthis'
p272
sg4
I12
sa(dp273
g2
S'inshaallah'
p274
sg4
I12
sa(dp275
g2
S'iraq'
p276
sg4
I12
sa(dp277
g2
S'khorasan313'
p278
sg4
I12
sa(dp279
g2
S'know'
p280
sg4
I12
sa(dp281
g2
S'kobane'
p282
sg4
I12
sa(dp283
g2
S'kurdish'
p284
sg4
I12
sa(dp285
g2
S'large'
p286
sg4
I12
sa(dp287
g2
S'old'
p288
sg4
I12
sa(dp289
g2
S'rafidha'
p290
sg4
I12
sa(dp291
g2
S'ribat'
p292
sg4
I12
sa(dp293
g2
S'sent'
p294
sg4
I12
sa(dp295
g2
S'shariah'
p296
sg4
I12
sa(dp297
g2
S'sheikh'
p298
sg4
I12
sa(dp299
g2
S'spread'
p300
sg4
I12
sa(dp301
g2
S'taghout'
p302
sg4
I12
sa(dp303
g2
S'think'
p304
sg4
I12
sa(dp305
g2
S'together'
p306
sg4
I12
sa(dp307
g2
S'took'
p308
sg4
I12
sa(dp309
g2
S'training'
p310
sg4
I12
sa(dp311
g2
S'went'
p312
sg4
I12
sa(dp313
g2
S'without'
p314
sg4
I12
sa(dp315
g2
S'z'
p316
sg4
I12
sa(dp317
g2
S'alsham'
p318
sg4
I10
sa(dp319
g2
S'also'
p320
sg4
I10
sa(dp321
g2
S'areas'
p322
sg4
I10
sa(dp323
g2
S'asked'
p324
sg4
I10
sa(dp325
g2
S'away'
p326
sg4
I10
sa(dp327
g2
S'benghazi'
p328
sg4
I10
sa(dp329
g2
S'blood'
p330
sg4
I10
sa(dp331
g2
S'bombs'
p332
sg4
I10
sa(dp333
g2
S'criminals'
p334
sg4
I10
sa(dp335
g2
S'day'
p336
sg4
I10
sa(dp337
g2
S'defense'
p338
sg4
I10
sa(dp339
g2
S'dogs'
p340
sg4
I10
sa(dp341
g2
S'eastern'
p342
sg4
I10
sa(dp343
g2
S'flag'
p344
sg4
I10
sa(dp345
g2
S'forces'
p346
sg4
I10
sa(dp347
g2
S'forgot'
p348
sg4
I10
sa(dp349
g2
S'hama'
p350
sg4
I10
sa(dp351
g2
S'jaish'
p352
sg4
I10
sa(dp353
g2
S'khilafah'
p354
sg4
I10
sa(dp355
g2
S'knows'
p356
sg4
I10
sa(dp357
g2
S'kufr'
p358
sg4
I10
sa(dp359
g2
S'law'
p360
sg4
I10
sa(dp361
g2
S'leaders'
p362
sg4
I10
sa(dp363
g2
S'like'
p364
sg4
I10
sa(dp365
g2
S'long'
p366
sg4
I10
sa(dp367
g2
S'major'
p368
sg4
I10
sa(dp369
g2
S'media'
p370
sg4
I10
sa(dp371
g2
S'mullah'
p372
sg4
I10
sa(dp373
g2
S'pkk'
p374
sg4
I10
sa(dp375
g2
S'positions'
p376
sg4
I10
sa(dp377
g2
S'pounding'
p378
sg4
I10
sa(dp379
g2
S'pretext'
p380
sg4
I10
sa(dp381
g2
S'rebels'
p382
sg4
I10
sa(dp383
g2
S'reports'
p384
sg4
I10
sa(dp385
g2
S'right'
p386
sg4
I10
sa(dp387
g2
S'rural'
p388
sg4
I10
sa(dp389
g2
S'salafis'
p390
sg4
I10
sa(dp391
g2
S'say'
p392
sg4
I10
sa(dp393
g2
S'supporters'
p394
sg4
I10
sa(dp395
g2
S'towards'
p396
sg4
I10
sa(dp397
g2
S'turkish'
p398
sg4
I10
sa(dp399
g2
S'umar'
p400
sg4
I10
sa(dp401
g2
S'upon'
p402
sg4
I10
sa(dp403
g2
S'via'
p404
sg4
I10
sa(dp405
g2
S'war'
p406
sg4
I10
sa(dp407
g2
S'abimaysarah'
p408
sg4
I8
sa(dp409
g2
S'abusulayman321'
p410
sg4
I8
sa(dp411
g2
S'adnaniyah'
p412
sg4
I8
sa(dp413
g2
S'afghanistan'
p414
sg4
I8
sa(dp415
g2
S'aide'
p416
sg4
I8
sa(dp417
g2
S'alhamdillah'
p418
sg4
I8
sa(dp419
g2
S'always'
p420
sg4
I8
sa(dp421
g2
S'ansari'
p422
sg4
I8
sa(dp423
g2
S'area'
p424
sg4
I8
sa(dp425
g2
S'army'
p426
sg4
I8
sa(dp427
g2
S'attacks'
p428
sg4
I8
sa(dp429
g2
S'aymen'
p430
sg4
I8
sa(dp431
g2
S'base'
p432
sg4
I8
sa(dp433
g2
S'based'
p434
sg4
I8
sa(dp435
g2
S'beard'
p436
sg4
I8
sa(dp437
g2
S'brigade'
p438
sg4
I8
sa(dp439
g2
S'brother'
p440
sg4
I8
sa(dp441
g2
S'cheerleadunited'
p442
sg4
I8
sa(dp443
g2
S'city'
p444
sg4
I8
sa(dp445
g2
S'dawlatislam2'
p446
sg4
I8
sa(dp447
g2
S'declared'
p448
sg4
I8
sa(dp449
g2
S'dozens'
p450
sg4
I8
sa(dp451
g2
S'extremists'
p452
sg4
I8
sa(dp453
g2
S'forget'
p454
sg4
I8
sa(dp455
g2
S'forgive'
p456
sg4
I8
sa(dp457
g2
S'fought'
p458
sg4
I8
sa(dp459
g2
S'get'
p460
sg4
I8
sa(dp461
g2
S'ghoutta'
p462
sg4
I8
sa(dp463
g2
S'going'
p464
sg4
I8
sa(dp465
g2
S'gt'
p466
sg4
I8
sa(dp467
g2
S'haftar'
p468
sg4
I8
sa(dp469
g2
S'heading'
p470
sg4
I8
sa(dp471
g2
S'important'
p472
sg4
I8
sa(dp473
g2
S'liberated'
p474
sg4
I8
sa(dp475
g2
S'liwa'
p476
sg4
I8
sa(dp477
g2
S'making'
p478
sg4
I8
sa(dp479
g2
S'man'
p480
sg4
I8
sa(dp481
g2
S'massacres'
p482
sg4
I8
sa(dp483
g2
S'massive'
p484
sg4
I8
sa(dp485
g2
S'mean'
p486
sg4
I8
sa(dp487
g2
S'means'
p488
sg4
I8
sa(dp489
g2
S'others'
p490
sg4
I8
sa(dp491
g2
S'picture'
p492
sg4
I8
sa(dp493
g2
S'point'
p494
sg4
I8
sa(dp495
g2
S'position'
p496
sg4
I8
sa(dp497
g2
S'ppl'
p498
sg4
I8
sa(dp499
g2
S'pray'
p500
sg4
I8
sa(dp501
g2
S'previous'
p502
sg4
I8
sa(dp503
g2
S'raid'
p504
sg4
I8
sa(dp505
g2
S'sanaa'
p506
sg4
I8
sa(dp507
g2
S'says'
p508
sg4
I8
sa(dp509
g2
S'security'
p510
sg4
I8
sa(dp511
g2
S'shari'
p512
sg4
I8
sa(dp513
g2
S'shia'
p514
sg4
I8
sa(dp515
g2
S'similarly'
p516
sg4
I8
sa(dp517
g2
S'something'
p518
sg4
I8
sa(dp519
g2
S'still'
p520
sg4
I8
sa(dp521
g2
S'stop'
p522
sg4
I8
sa(dp523
g2
S'story'
p524
sg4
I8
sa(dp525
g2
S'strikes'
p526
sg4
I8
sa(dp527
g2
S'take'
p528
sg4
I8
sa(dp529
g2
S'takfeer'
p530
sg4
I8
sa(dp531
g2
S'tawageet'
p532
sg4
I8
sa(dp533
g2
S'theyre'
p534
sg4
I8
sa(dp535
g2
S'w'
p536
sg4
I8
sa(dp537
g2
S'wal'
p538
sg4
I8
sa(dp539
g2
S'years'
p540
sg4
I8
sa(dp541
g2
S'afghan'
p542
sg4
I6
sa(dp543
g2
S'age'
p544
sg4
I6
sa(dp545
g2
S'ahl'
p546
sg4
I6
sa(dp547
g2
S'ahmed'
p548
sg4
I6
sa(dp549
g2
S'aiding'
p550
sg4
I6
sa(dp551
g2
S'algirish10'
p552
sg4
I6
sa(dp553
g2
S'ali'
p554
sg4
I6
sa(dp555
g2
S'allies'
p556
sg4
I6
sa(dp557
g2
S'amazing'
p558
sg4
I6
sa(dp559
g2
S'amr'
p560
sg4
I6
sa(dp561
g2
S'answer'
p562
sg4
I6
sa(dp563
g2
S'any1'
p564
sg4
I6
sa(dp565
g2
S'apostate'
p566
sg4
I6
sa(dp567
g2
S'arabian'
p568
sg4
I6
sa(dp569
g2
S'around'
p570
sg4
I6
sa(dp571
g2
S'assad'
p572
sg4
I6
sa(dp573
g2
S'assads'
p574
sg4
I6
sa(dp575
g2
S'assault'
p576
sg4
I6
sa(dp577
g2
S'attacked'
p578
sg4
I6
sa(dp579
g2
S'barrel'
p580
sg4
I6
sa(dp581
g2
S'bases'
p582
sg4
I6
sa(dp583
g2
S'break'
p584
sg4
I6
sa(dp585
g2
S'call'
p586
sg4
I6
sa(dp587
g2
S'came'
p588
sg4
I6
sa(dp589
g2
S'capture'
p590
sg4
I6
sa(dp591
g2
S'charleslister'
p592
sg4
I6
sa(dp593
g2
S'chechclearrr'
p594
sg4
I6
sa(dp595
g2
S'claim'
p596
sg4
I6
sa(dp597
g2
S'clashes'
p598
sg4
I6
sa(dp599
g2
S'commander'
p600
sg4
I6
sa(dp601
g2
S'condemn'
p602
sg4
I6
sa(dp603
g2
S'confirms'
p604
sg4
I6
sa(dp605
g2
S'criticizing'
p606
sg4
I6
sa(dp607
g2
S'crusader'
p608
sg4
I6
sa(dp609
g2
S'crusaders'
p610
sg4
I6
sa(dp611
g2
S'damishq'
p612
sg4
I6
sa(dp613
g2
S'dara'
p614
sg4
I6
sa(dp615
g2
S'deir'
p616
sg4
I6
sa(dp617
g2
S'details'
p618
sg4
I6
sa(dp619
g2
S'district'
p620
sg4
I6
sa(dp621
g2
S'doreen'
p622
sg4
I6
sa(dp623
g2
S'emirate'
p624
sg4
I6
sa(dp625
g2
S'enter'
p626
sg4
I6
sa(dp627
g2
S'everyone'
p628
sg4
I6
sa(dp629
g2
S'factories'
p630
sg4
I6
sa(dp631
g2
S'fake'
p632
sg4
I6
sa(dp633
g2
S'father'
p634
sg4
I6
sa(dp635
g2
S'fezoo111'
p636
sg4
I6
sa(dp637
g2
S'follow'
p638
sg4
I6
sa(dp639
g2
S'foot'
p640
sg4
I6
sa(dp641
g2
S'frontlines'
p642
sg4
I6
sa(dp643
g2
S'fronts'
p644
sg4
I6
sa(dp645
g2
S'gathering'
p646
sg4
I6
sa(dp647
g2
S'glad'
p648
sg4
I6
sa(dp649
g2
S'gon'
p650
sg4
I6
sa(dp651
g2
S'good'
p652
sg4
I6
sa(dp653
g2
S'ha'
p654
sg4
I6
sa(dp655
g2
S'happen'
p656
sg4
I6
sa(dp657
g2
S'happened'
p658
sg4
I6
sa(dp659
g2
S'haq'
p660
sg4
I6
sa(dp661
g2
S'heavy'
p662
sg4
I6
sa(dp663
g2
S'help'
p664
sg4
I6
sa(dp665
g2
S'hundreds'
p666
sg4
I6
sa(dp667
g2
S'im'
p668
sg4
I6
sa(dp669
g2
S'independent'
p670
sg4
I6
sa(dp671
g2
S'initiative'
p672
sg4
I6
sa(dp673
g2
S'innocent'
p674
sg4
I6
sa(dp675
g2
S'inspecting'
p676
sg4
I6
sa(dp677
g2
S'isi'
p678
sg4
I6
sa(dp679
g2
S'jabir'
p680
sg4
I6
sa(dp681
g2
S'jaysh'
p682
sg4
I6
sa(dp683
g2
S'join'
p684
sg4
I6
sa(dp685
g2
S'kandahar'
p686
sg4
I6
sa(dp687
g2
S'khalid'
p688
sg4
I6
sa(dp689
g2
S'kill'
p690
sg4
I6
sa(dp691
g2
S'known'
p692
sg4
I6
sa(dp693
g2
S'later'
p694
sg4
I6
sa(dp695
g2
S'lattakia'
p696
sg4
I6
sa(dp697
g2
S'let'
p698
sg4
I6
sa(dp699
g2
S'life'
p700
sg4
I6
sa(dp701
g2
S'lol'
p702
sg4
I6
sa(dp703
g2
S'makes'
p704
sg4
I6
sa(dp705
g2
S'manhaj'
p706
sg4
I6
sa(dp707
g2
S'markito0171'
p708
sg4
I6
sa(dp709
g2
S'mb'
p710
sg4
I6
sa(dp711
g2
S'mention'
p712
sg4
I6
sa(dp713
g2
S'morek'
p714
sg4
I6
sa(dp715
g2
S'musab'
p716
sg4
I6
sa(dp717
g2
S'na'
p718
sg4
I6
sa(dp719
g2
S'nationalism'
p720
sg4
I6
sa(dp721
g2
S'north'
p722
sg4
I6
sa(dp723
g2
S'nusayris'
p724
sg4
I6
sa(dp725
g2
S'offensive'
p726
sg4
I6
sa(dp727
g2
S'officer'
p728
sg4
I6
sa(dp729
g2
S'ones'
p730
sg4
I6
sa(dp731
g2
S'organization'
p732
sg4
I6
sa(dp733
g2
S'part'
p734
sg4
I6
sa(dp735
g2
S'path'
p736
sg4
I6
sa(dp737
g2
S'peninsula'
p738
sg4
I6
sa(dp739
g2
S'person'
p740
sg4
I6
sa(dp741
g2
S'place'
p742
sg4
I6
sa(dp743
g2
S'problem'
p744
sg4
I6
sa(dp745
g2
S'prois'
p746
sg4
I6
sa(dp747
g2
S'prophet'
p748
sg4
I6
sa(dp749
g2
S'public'
p750
sg4
I6
sa(dp751
g2
S'put'
p752
sg4
I6
sa(dp753
g2
S'question'
p754
sg4
I6
sa(dp755
g2
S'qunaitirah'
p756
sg4
I6
sa(dp757
g2
S'raqqah'
p758
sg4
I6
sa(dp759
g2
S'really'
p760
sg4
I6
sa(dp761
g2
S'return'
p762
sg4
I6
sa(dp763
g2
S'saeedalhalabi'
p764
sg4
I6
sa(dp765
g2
S'salafi'
p766
sg4
I6
sa(dp767
g2
S'salafijihadi'
p768
sg4
I6
sa(dp769
g2
S'saudi'
p770
sg4
I6
sa(dp771
g2
S'saying'
p772
sg4
I6
sa(dp773
g2
S'show'
p774
sg4
I6
sa(dp775
g2
S'showing'
p776
sg4
I6
sa(dp777
g2
S'shura'
p778
sg4
I6
sa(dp779
g2
S'since'
p780
sg4
I6
sa(dp781
g2
S'sincere'
p782
sg4
I6
sa(dp783
g2
S'sisters'
p784
sg4
I6
sa(dp785
g2
S'source'
p786
sg4
I6
sa(dp787
g2
S'sources'
p788
sg4
I6
sa(dp789
g2
S'statement'
p790
sg4
I6
sa(dp791
g2
S'stories'
p792
sg4
I6
sa(dp793
g2
S'subhanallah'
p794
sg4
I6
sa(dp795
g2
S'success'
p796
sg4
I6
sa(dp797
g2
S'sulayman'
p798
sg4
I6
sa(dp799
g2
S'sunnah'
p800
sg4
I6
sa(dp801
g2
S'talha'
p802
sg4
I6
sa(dp803
g2
S'tanks'
p804
sg4
I6
sa(dp805
g2
S'targeting'
p806
sg4
I6
sa(dp807
g2
S'tawheed'
p808
sg4
I6
sa(dp809
g2
S'theyll'
p810
sg4
I6
sa(dp811
g2
S'tidings'
p812
sg4
I6
sa(dp813
g2
S'top'
p814
sg4
I6
sa(dp815
g2
S'tribes'
p816
sg4
I6
sa(dp817
g2
S'try'
p818
sg4
I6
sa(dp819
g2
S'tunisia'
p820
sg4
I6
sa(dp821
g2
S'unity'
p822
sg4
I6
sa(dp823
g2
S'ur'
p824
sg4
I6
sa(dp825
g2
S'victory'
p826
sg4
I6
sa(dp827
g2
S'village'
p828
sg4
I6
sa(dp829
g2
S'vs'
p830
sg4
I6
sa(dp831
g2
S'wali'
p832
sg4
I6
sa(dp833
g2
S'weapons'
p834
sg4
I6
sa(dp835
g2
S'west'
p836
sg4
I6
sa(dp837
g2
S'whats'
p838
sg4
I6
sa(dp839
g2
S'wife'
p840
sg4
I6
sa(dp841
g2
S'wrong'
p842
sg4
I6
sa(dp843
g2
S'zakariya1996'
p844
sg4
I6
sa.