(lp0
(dp1
S'text'
p2
S'allah'
p3
sS'size'
p4
I502
sa(dp5
g2
S'amp'
p6
sg4
I434
sa(dp7
g2
S'people'
p8
sg4
I172
sa(dp9
g2
S'jihad'
p10
sg4
I156
sa(dp11
g2
S'dont'
p12
sg4
I152
sa(dp13
g2
S'bro'
p14
sg4
I134
sa(dp15
g2
S'shamiwitness'
p16
sg4
I126
sa(dp17
g2
S'shaykh'
p18
sg4
I120
sa(dp19
g2
S'know'
p20
sg4
I108
sa(dp21
g2
S'like'
p22
sg4
I102
sa(dp23
g2
S'abu'
p24
sg4
I98
sa(dp25
g2
S'said'
p26
sg4
I98
sa(dp27
g2
S'say'
p28
sg4
I98
sa(dp29
g2
S'ya'
p30
sg4
I98
sa(dp31
g2
S'jn'
p32
sg4
I84
sa(dp33
g2
S'make'
p34
sg4
I84
sa(dp35
g2
S'bros'
p36
sg4
I82
sa(dp37
g2
S'see'
p38
sg4
I78
sa(dp39
g2
S'abusulayman321'
p40
sg4
I76
sa(dp41
g2
S'ahki'
p42
sg4
I72
sa(dp43
g2
S'even'
p44
sg4
I72
sa(dp45
g2
S'im'
p46
sg4
I72
sa(dp47
g2
S'think'
p48
sg4
I72
sa(dp49
g2
S'going'
p50
sg4
I70
sa(dp51
g2
S'altarefeen'
p52
sg4
I68
sa(dp53
g2
S'brothers'
p54
sg4
I68
sa(dp55
g2
S'julaybeeeeb'
p56
sg4
I68
sa(dp57
g2
S'sham'
p58
sg4
I62
sa(dp59
g2
S'group'
p60
sg4
I60
sa(dp61
g2
S'al'
p62
sg4
I58
sa(dp63
g2
S'love'
p64
sg4
I58
sa(dp65
g2
S'take'
p66
sg4
I56
sa(dp67
g2
S'scholars'
p68
sg4
I54
sa(dp69
g2
S'give'
p70
sg4
I52
sa(dp71
g2
S'iraqiwitness'
p72
sg4
I52
sa(dp73
g2
S'killed'
p74
sg4
I52
sa(dp75
g2
S'lol'
p76
sg4
I52
sa(dp77
g2
S'muslim'
p78
sg4
I52
sa(dp79
g2
S'muslims'
p80
sg4
I52
sa(dp81
g2
S'never'
p82
sg4
I52
sa(dp83
g2
S'want'
p84
sg4
I52
sa(dp85
g2
S'way'
p86
sg4
I52
sa(dp87
g2
S'come'
p88
sg4
I50
sa(dp89
g2
S'get'
p90
sg4
I50
sa(dp91
g2
S'isis'
p92
sg4
I50
sa(dp93
g2
S'truth'
p94
sg4
I50
sa(dp95
g2
S'fighting'
p96
sg4
I48
sa(dp97
g2
S'jannah'
p98
sg4
I48
sa(dp99
g2
S'ahmadmusajibril'
p100
sg4
I46
sa(dp101
g2
S'didnt'
p102
sg4
I46
sa(dp103
g2
S'islam'
p104
sg4
I46
sa(dp105
g2
S'droopdelacreme'
p106
sg4
I44
sa(dp107
g2
S'sheikh'
p108
sg4
I44
sa(dp109
g2
S'cant'
p110
sg4
I42
sa(dp111
g2
S'good'
p112
sg4
I42
sa(dp113
g2
S'really'
p114
sg4
I42
sa(dp115
g2
S'sh'
p116
sg4
I42
sa(dp117
g2
S'subhanallah'
p118
sg4
I42
sa(dp119
g2
S'thing'
p120
sg4
I42
sa(dp121
g2
S'ask'
p122
sg4
I40
sa(dp123
g2
S'doesnt'
p124
sg4
I40
sa(dp125
g2
S'fear'
p126
sg4
I40
sa(dp127
g2
S'ummah'
p128
sg4
I40
sa(dp129
g2
S'victory'
p130
sg4
I40
sa(dp131
g2
S'yeah'
p132
sg4
I40
sa(dp133
g2
S'call'
p134
sg4
I38
sa(dp135
g2
S'follow'
p136
sg4
I38
sa(dp137
g2
S'got'
p138
sg4
I38
sa(dp139
g2
S'inshallah'
p140
sg4
I38
sa(dp141
g2
S'mujahideen'
p142
sg4
I38
sa(dp143
g2
S'onthatpath3'
p144
sg4
I38
sa(dp145
g2
S'path'
p146
sg4
I38
sa(dp147
g2
S'time'
p148
sg4
I38
sa(dp149
g2
S'accept'
p150
sg4
I36
sa(dp151
g2
S'allahs'
p152
sg4
I36
sa(dp153
g2
S'ibnnabih'
p154
sg4
I36
sa(dp155
g2
S'need'
p156
sg4
I36
sa(dp157
g2
S'quran'
p158
sg4
I36
sa(dp159
g2
S'things'
p160
sg4
I36
sa(dp161
g2
S'back'
p162
sg4
I34
sa(dp163
g2
S'bin'
p164
sg4
I34
sa(dp165
g2
S'guys'
p166
sg4
I34
sa(dp167
g2
S'ibn'
p168
sg4
I34
sa(dp169
g2
S'kuffar'
p170
sg4
I34
sa(dp171
g2
S'last'
p172
sg4
I34
sa(dp173
g2
S'prison'
p174
sg4
I34
sa(dp175
g2
S'swt'
p176
sg4
I34
sa(dp177
g2
S'advice'
p178
sg4
I32
sa(dp179
g2
S'best'
p180
sg4
I32
sa(dp181
g2
S'go'
p182
sg4
I32
sa(dp183
g2
S'many'
p184
sg4
I32
sa(dp185
g2
S'syria'
p186
sg4
I32
sa(dp187
g2
S'twitter'
p188
sg4
I32
sa(dp189
g2
S'everything'
p190
sg4
I30
sa(dp191
g2
S'making'
p192
sg4
I30
sa(dp193
g2
S'much'
p194
sg4
I30
sa(dp195
g2
S'protect'
p196
sg4
I30
sa(dp197
g2
S'religion'
p198
sg4
I30
sa(dp199
g2
S'right'
p200
sg4
I30
sa(dp201
g2
S'saw'
p202
sg4
I30
sa(dp203
g2
S'something'
p204
sg4
I30
sa(dp205
g2
S'support'
p206
sg4
I30
sa(dp207
g2
S'talking'
p208
sg4
I30
sa(dp209
g2
S'true'
p210
sg4
I30
sa(dp211
g2
S'truthsmaster'
p212
sg4
I30
sa(dp213
g2
S'yushaevans'
p214
sg4
I30
sa(dp215
g2
S'brother'
p216
sg4
I28
sa(dp217
g2
S'day'
p218
sg4
I28
sa(dp219
g2
S'days'
p220
sg4
I28
sa(dp221
g2
S'jabz26'
p222
sg4
I28
sa(dp223
g2
S'still'
p224
sg4
I28
sa(dp225
g2
S'towards'
p226
sg4
I28
sa(dp227
g2
S'world'
p228
sg4
I28
sa(dp229
g2
S'anything'
p230
sg4
I26
sa(dp231
g2
S'become'
p232
sg4
I26
sa(dp233
g2
S'better'
p234
sg4
I26
sa(dp235
g2
S'enemies'
p236
sg4
I26
sa(dp237
g2
S'fight'
p238
sg4
I26
sa(dp239
g2
S'groups'
p240
sg4
I26
sa(dp241
g2
S'guy'
p242
sg4
I26
sa(dp243
g2
S'ive'
p244
sg4
I26
sa(dp245
g2
S'little'
p246
sg4
I26
sa(dp247
g2
S'made'
p248
sg4
I26
sa(dp249
g2
S'new'
p250
sg4
I26
sa(dp251
g2
S'nonsense'
p252
sg4
I26
sa(dp253
g2
S'o'
p254
sg4
I26
sa(dp255
g2
S'sunnah'
p256
sg4
I26
sa(dp257
g2
S'thats'
p258
sg4
I26
sa(dp259
g2
S'today'
p260
sg4
I26
sa(dp261
g2
S'understand'
p262
sg4
I26
sa(dp263
g2
S'called'
p264
sg4
I24
sa(dp265
g2
S'dawla'
p266
sg4
I24
sa(dp267
g2
S'feel'
p268
sg4
I24
sa(dp269
g2
S'h'
p270
sg4
I24
sa(dp271
g2
S'kill'
p272
sg4
I24
sa(dp273
g2
S'mercy'
p274
sg4
I24
sa(dp275
g2
S'please'
p276
sg4
I24
sa(dp277
g2
S'prophet'
p278
sg4
I24
sa(dp279
g2
S'sake'
p280
sg4
I24
sa(dp281
g2
S'says'
p282
sg4
I24
sa(dp283
g2
S'speech'
p284
sg4
I24
sa(dp285
g2
S'ur'
p286
sg4
I24
sa(dp287
g2
S'use'
p288
sg4
I24
sa(dp289
g2
S'war'
p290
sg4
I24
sa(dp291
g2
S'whats'
p292
sg4
I24
sa(dp293
g2
S'actually'
p294
sg4
I22
sa(dp295
g2
S'asked'
p296
sg4
I22
sa(dp297
g2
S'away'
p298
sg4
I22
sa(dp299
g2
S'beautiful'
p300
sg4
I22
sa(dp301
g2
S'believers'
p302
sg4
I22
sa(dp303
g2
S'bruv'
p304
sg4
I22
sa(dp305
g2
S'funny'
p306
sg4
I22
sa(dp307
g2
S'guide'
p308
sg4
I22
sa(dp309
g2
S'ha'
p310
sg4
I22
sa(dp311
g2
S'harith'
p312
sg4
I22
sa(dp313
g2
S'heart'
p314
sg4
I22
sa(dp315
g2
S'hearts'
p316
sg4
I22
sa(dp317
g2
S'jointhecaravan'
p318
sg4
I22
sa(dp319
g2
S'knowledge'
p320
sg4
I22
sa(dp321
g2
S'left'
p322
sg4
I22
sa(dp323
g2
S'matter'
p324
sg4
I22
sa(dp325
g2
S'muawiyaiasufian'
p326
sg4
I22
sa(dp327
g2
S'question'
p328
sg4
I22
sa(dp329
g2
S'saqransaar'
p330
sg4
I22
sa(dp331
g2
S'talk'
p332
sg4
I22
sa(dp333
g2
S'try'
p334
sg4
I22
sa(dp335
g2
S'without'
p336
sg4
I22
sa(dp337
g2
S'abulooz22'
p338
sg4
I20
sa(dp339
g2
S'ajaltamimi'
p340
sg4
I20
sa(dp341
g2
S'also'
p342
sg4
I20
sa(dp343
g2
S'believe'
p344
sg4
I20
sa(dp345
g2
S'cause'
p346
sg4
I20
sa(dp347
g2
S'enemy'
p348
sg4
I20
sa(dp349
g2
S'find'
p350
sg4
I20
sa(dp351
g2
S'front'
p352
sg4
I20
sa(dp353
g2
S'getting'
p354
sg4
I20
sa(dp355
g2
S'ground'
p356
sg4
I20
sa(dp357
g2
S'iraq'
p358
sg4
I20
sa(dp359
g2
S'let'
p360
sg4
I20
sa(dp361
g2
S'listen'
p362
sg4
I20
sa(dp363
g2
S'live'
p364
sg4
I20
sa(dp365
g2
S'look'
p366
sg4
I20
sa(dp367
g2
S'muhammad'
p368
sg4
I20
sa(dp369
g2
S'oh'
p370
sg4
I20
sa(dp371
g2
S'preserve'
p372
sg4
I20
sa(dp373
g2
S'saying'
p374
sg4
I20
sa(dp375
g2
S'sincere'
p376
sg4
I20
sa(dp377
g2
S'taimiyyah'
p378
sg4
I20
sa(dp379
g2
S'trying'
p380
sg4
I20
sa(dp381
g2
S'wallahi'
p382
sg4
I20
sa(dp383
g2
S'west'
p384
sg4
I20
sa(dp385
g2
S'ahmedshaheed86'
p386
sg4
I18
sa(dp387
g2
S'america'
p388
sg4
I18
sa(dp389
g2
S'among'
p390
sg4
I18
sa(dp391
g2
S'army'
p392
sg4
I18
sa(dp393
g2
S'ashshawqi'
p394
sg4
I18
sa(dp395
g2
S'battle'
p396
sg4
I18
sa(dp397
g2
S'blood'
p398
sg4
I18
sa(dp399
g2
S'coming'
p400
sg4
I18
sa(dp401
g2
S'dawlatislam1'
p402
sg4
I18
sa(dp403
g2
S'due'
p404
sg4
I18
sa(dp405
g2
S'ever'
p406
sg4
I18
sa(dp407
g2
S'far'
p408
sg4
I18
sa(dp409
g2
S'free'
p410
sg4
I18
sa(dp411
g2
S'fsa'
p412
sg4
I18
sa(dp413
g2
S'ghazi'
p414
sg4
I18
sa(dp415
g2
S'ghazishami'
p416
sg4
I18
sa(dp417
g2
S'giving'
p418
sg4
I18
sa(dp419
g2
S'imagine'
p420
sg4
I18
sa(dp421
g2
S'knows'
p422
sg4
I18
sa(dp423
g2
S'long'
p424
sg4
I18
sa(dp425
g2
S'makes'
p426
sg4
I18
sa(dp427
g2
S'men'
p428
sg4
I18
sa(dp429
g2
S'mujihedeen'
p430
sg4
I18
sa(dp431
g2
S'next'
p432
sg4
I18
sa(dp433
g2
S'night'
p434
sg4
I18
sa(dp435
g2
S'nothing'
p436
sg4
I18
sa(dp437
g2
S'part'
p438
sg4
I18
sa(dp439
g2
S'put'
p440
sg4
I18
sa(dp441
g2
S'shahada'
p442
sg4
I18
sa(dp443
g2
S'silenttweep'
p444
sg4
I18
sa(dp445
g2
S'speak'
p446
sg4
I18
sa(dp447
g2
S'stop'
p448
sg4
I18
sa(dp449
g2
S'tongue'
p450
sg4
I18
sa(dp451
g2
S'turn'
p452
sg4
I18
sa(dp453
g2
S'well'
p454
sg4
I18
sa(dp455
g2
S'wish'
p456
sg4
I18
sa(dp457
g2
S'words'
p458
sg4
I18
sa(dp459
g2
S'work'
p460
sg4
I18
sa(dp461
g2
S'abulqaqa'
p462
sg4
I16
sa(dp463
g2
S'alikhokhar89'
p464
sg4
I16
sa(dp465
g2
S'around'
p466
sg4
I16
sa(dp467
g2
S'attack'
p468
sg4
I16
sa(dp469
g2
S'bayah'
p470
sg4
I16
sa(dp471
g2
S'behind'
p472
sg4
I16
sa(dp473
g2
S'calling'
p474
sg4
I16
sa(dp475
g2
S'came'
p476
sg4
I16
sa(dp477
g2
S'dawlah'
p478
sg4
I16
sa(dp479
g2
S'death'
p480
sg4
I16
sa(dp481
g2
S'deen'
p482
sg4
I16
sa(dp483
g2
S'dunya'
p484
sg4
I16
sa(dp485
g2
S'earth'
p486
sg4
I16
sa(dp487
g2
S'end'
p488
sg4
I16
sa(dp489
g2
S'establish'
p490
sg4
I16
sa(dp491
g2
S'extremism'
p492
sg4
I16
sa(dp493
g2
S'eyes'
p494
sg4
I16
sa(dp495
g2
S'following'
p496
sg4
I16
sa(dp497
g2
S'forget'
p498
sg4
I16
sa(dp499
g2
S'goes'
p500
sg4
I16
sa(dp501
g2
S'help'
p502
sg4
I16
sa(dp503
g2
S'ignorant'
p504
sg4
I16
sa(dp505
g2
S'ill'
p506
sg4
I16
sa(dp507
g2
S'imam'
p508
sg4
I16
sa(dp509
g2
S'keep'
p510
sg4
I16
sa(dp511
g2
S'khalidmaghrebi'
p512
sg4
I16
sa(dp513
g2
S'killing'
p514
sg4
I16
sa(dp515
g2
S'lies'
p516
sg4
I16
sa(dp517
g2
S'life'
p518
sg4
I16
sa(dp519
g2
S'lord'
p520
sg4
I16
sa(dp521
g2
S'man'
p522
sg4
I16
sa(dp523
g2
S'married'
p524
sg4
I16
sa(dp525
g2
S'maybe'
p526
sg4
I16
sa(dp527
g2
S'media'
p528
sg4
I16
sa(dp529
g2
S'murtadeen'
p530
sg4
I16
sa(dp531
g2
S'nusra'
p532
sg4
I16
sa(dp533
g2
S'pleased'
p534
sg4
I16
sa(dp535
g2
S'side'
p536
sg4
I16
sa(dp537
g2
S'start'
p538
sg4
I16
sa(dp539
g2
S'thru'
p540
sg4
I16
sa(dp541
g2
S'told'
p542
sg4
I16
sa(dp543
g2
S'ummmutaasim'
p544
sg4
I16
sa(dp545
g2
S'whos'
p546
sg4
I16
sa(dp547
g2
S'wont'
p548
sg4
I16
sa(dp549
g2
S'youll'
p550
sg4
I16
sa(dp551
g2
S'abdujanah'
p552
sg4
I14
sa(dp553
g2
S'abusiqr'
p554
sg4
I14
sa(dp555
g2
S'ago'
p556
sg4
I14
sa(dp557
g2
S'aid'
p558
sg4
I14
sa(dp559
g2
S'allaah'
p560
sg4
I14
sa(dp561
g2
S'alone'
p562
sg4
I14
sa(dp563
g2
S'already'
p564
sg4
I14
sa(dp565
g2
S'always'
p566
sg4
I14
sa(dp567
g2
S'ameen'
p568
sg4
I14
sa(dp569
g2
S'answer'
p570
sg4
I14
sa(dp571
g2
S'beloved'
p572
sg4
I14
sa(dp573
g2
S'bit'
p574
sg4
I14
sa(dp575
g2
S'children'
p576
sg4
I14
sa(dp577
g2
S'comes'
p578
sg4
I14
sa(dp579
g2
S'dua'
p580
sg4
I14
sa(dp581
g2
S'especially'
p582
sg4
I14
sa(dp583
g2
S'except'
p584
sg4
I14
sa(dp585
g2
S'gave'
p586
sg4
I14
sa(dp587
g2
S'grant'
p588
sg4
I14
sa(dp589
g2
S'guess'
p590
sg4
I14
sa(dp591
g2
S'hold'
p592
sg4
I14
sa(dp593
g2
S'http'
p594
sg4
I14
sa(dp595
g2
S'iman'
p596
sg4
I14
sa(dp597
g2
S'known'
p598
sg4
I14
sa(dp599
g2
S'land'
p600
sg4
I14
sa(dp601
g2
S'lets'
p602
sg4
I14
sa(dp603
g2
S'lie'
p604
sg4
I14
sa(dp605
g2
S'likes'
p606
sg4
I14
sa(dp607
g2
S'mean'
p608
sg4
I14
sa(dp609
g2
S'meet'
p610
sg4
I14
sa(dp611
g2
S'met'
p612
sg4
I14
sa(dp613
g2
S'month'
p614
sg4
I14
sa(dp615
g2
S'months'
p616
sg4
I14
sa(dp617
g2
S'mujahid'
p618
sg4
I14
sa(dp619
g2
S'n'
p620
sg4
I14
sa(dp621
g2
S'na'
p622
sg4
I14
sa(dp623
g2
S'needs'
p624
sg4
I14
sa(dp625
g2
S'news'
p626
sg4
I14
sa(dp627
g2
S'ok'
p628
sg4
I14
sa(dp629
g2
S'ones'
p630
sg4
I14
sa(dp631
g2
S'open'
p632
sg4
I14
sa(dp633
g2
S'pay'
p634
sg4
I14
sa(dp635
g2
S'release'
p636
sg4
I14
sa(dp637
g2
S'remember'
p638
sg4
I14
sa(dp639
g2
S'reward'
p640
sg4
I14
sa(dp641
g2
S'sad'
p642
sg4
I14
sa(dp643
g2
S'shari'
p644
sg4
I14
sa(dp645
g2
S'sisters'
p646
sg4
I14
sa(dp647
g2
S'state'
p648
sg4
I14
sa(dp649
g2
S'sword'
p650
sg4
I14
sa(dp651
g2
S'takfer'
p652
sg4
I14
sa(dp653
g2
S'tell'
p654
sg4
I14
sa(dp655
g2
S'telling'
p656
sg4
I14
sa(dp657
g2
S'theiraqiwitness'
p658
sg4
I14
sa(dp659
g2
S'upon'
p660
sg4
I14
sa(dp661
g2
S'video'
p662
sg4
I14
sa(dp663
g2
S'whoever'
p664
sg4
I14
sa(dp665
g2
S'xinxaro111'
p666
sg4
I14
sa(dp667
g2
S'abdullah'
p668
sg4
I12
sa(dp669
g2
S'abuqaqa'
p670
sg4
I12
sa(dp671
g2
S'across'
p672
sg4
I12
sa(dp673
g2
S'ahrar'
p674
sg4
I12
sa(dp675
g2
S'aleppo'
p676
sg4
I12
sa(dp677
g2
S'alhamdulilah'
p678
sg4
I12
sa(dp679
g2
S'ali'
p680
sg4
I12
sa(dp681
g2
S'allowed'
p682
sg4
I12
sa(dp683
g2
S'amazing'
p684
sg4
I12
sa(dp685
g2
S'ansar'
p686
sg4
I12
sa(dp687
g2
S'arent'
p688
sg4
I12
sa(dp689
g2
S'ayn'
p690
sg4
I12
sa(dp691
g2
S'azelin'
p692
sg4
I12
sa(dp693
g2
S'battlefields'
p694
sg4
I12
sa(dp695
g2
S'biggest'
p696
sg4
I12
sa(dp697
g2
S'bunch'
p698
sg4
I12
sa(dp699
g2
S'care'
p700
sg4
I12
sa(dp701
g2
S'couple'
p702
sg4
I12
sa(dp703
g2
S'crime'
p704
sg4
I12
sa(dp705
g2
S'dawlayadawla'
p706
sg4
I12
sa(dp707
g2
S'dogs'
p708
sg4
I12
sa(dp709
g2
S'dying'
p710
sg4
I12
sa(dp711
g2
S'evidence'
p712
sg4
I12
sa(dp713
g2
S'expect'
p714
sg4
I12
sa(dp715
g2
S'family'
p716
sg4
I12
sa(dp717
g2
S'fiqh'
p718
sg4
I12
sa(dp719
g2
S'firm'
p720
sg4
I12
sa(dp721
g2
S'fitna'
p722
sg4
I12
sa(dp723
g2
S'gone'
p724
sg4
I12
sa(dp725
g2
S'hadith'
p726
sg4
I12
sa(dp727
g2
S'happened'
p728
sg4
I12
sa(dp729
g2
S'happy'
p730
sg4
I12
sa(dp731
g2
S'hard'
p732
sg4
I12
sa(dp733
g2
S'hate'
p734
sg4
I12
sa(dp735
g2
S'islamic'
p736
sg4
I12
sa(dp737
g2
S'leaders'
p738
sg4
I12
sa(dp739
g2
S'leave'
p740
sg4
I12
sa(dp741
g2
S'lot'
p742
sg4
I12
sa(dp743
g2
S'loved'
p744
sg4
I12
sa(dp745
g2
S'm'
p746
sg4
I12
sa(dp747
g2
S'messenger'
p748
sg4
I12
sa(dp749
g2
S'miss'
p750
sg4
I12
sa(dp751
g2
S'murtad'
p752
sg4
I12
sa(dp753
g2
S'name'
p754
sg4
I12
sa(dp755
g2
S'official'
p756
sg4
I12
sa(dp757
g2
S'old'
p758
sg4
I12
sa(dp759
g2
S'place'
p760
sg4
I12
sa(dp761
g2
S'point'
p762
sg4
I12
sa(dp763
g2
S'qaatil23'
p764
sg4
I12
sa(dp765
g2
S'ra'
p766
sg4
I12
sa(dp767
g2
S'rawdahabdi'
p768
sg4
I12
sa(dp769
g2
S'retweet'
p770
sg4
I12
sa(dp771
g2
S'saudi'
p772
sg4
I12
sa(dp773
g2
S'seek'
p774
sg4
I12
sa(dp775
g2
S'sharia'
p776
sg4
I12
sa(dp777
g2
S'silent'
p778
sg4
I12
sa(dp779
g2
S'sin'
p780
sg4
I12
sa(dp781
g2
S'somalia'
p782
sg4
I12
sa(dp783
g2
S'speaking'
p784
sg4
I12
sa(dp785
g2
S'stay'
p786
sg4
I12
sa(dp787
g2
S'terror'
p788
sg4
I12
sa(dp789
g2
S'took'
p790
sg4
I12
sa(dp791
g2
S'youve'
p792
sg4
I12
sa(dp793
g2
S'absolutely'
p794
sg4
I10
sa(dp795
g2
S'abujamajem'
p796
sg4
I10
sa(dp797
g2
S'acting'
p798
sg4
I10
sa(dp799
g2
S'allahu'
p800
sg4
I10
sa(dp801
g2
S'allahumustan'
p802
sg4
I10
sa(dp803
g2
S'ameeranaabudua'
p804
sg4
I10
sa(dp805
g2
S'anyways'
p806
sg4
I10
sa(dp807
g2
S'asking'
p808
sg4
I10
sa(dp809
g2
S'authobillah'
p810
sg4
I10
sa(dp811
g2
S'b'
p812
sg4
I10
sa(dp813
g2
S'bashar'
p814
sg4
I10
sa(dp815
g2
S'bathiest'
p816
sg4
I10
sa(dp817
g2
S'benefit'
p818
sg4
I10
sa(dp819
g2
S'big'
p820
sg4
I10
sa(dp821
g2
S'blackflagworld'
p822
sg4
I10
sa(dp823
g2
S'blessed'
p824
sg4
I10
sa(dp825
g2
S'body'
p826
sg4
I10
sa(dp827
g2
S'bombing'
p828
sg4
I10
sa(dp829
g2
S'british'
p830
sg4
I10
sa(dp831
g2
S'die'
p832
sg4
I10
sa(dp833
g2
S'difference'
p834
sg4
I10
sa(dp835
g2
S'dr'
p836
sg4
I10
sa(dp837
g2
S'ended'
p838
sg4
I10
sa(dp839
g2
S'english'
p840
sg4
I10
sa(dp841
g2
S'etc'
p842
sg4
I10
sa(dp843
g2
S'everyone'
p844
sg4
I10
sa(dp845
g2
S'firdus'
p846
sg4
I10
sa(dp847
g2
S'first'
p848
sg4
I10
sa(dp849
g2
S'full'
p850
sg4
I10
sa(dp851
g2
S'haqq'
p852
sg4
I10
sa(dp853
g2
S'hellfire'
p854
sg4
I10
sa(dp855
g2
S'high'
p856
sg4
I10
sa(dp857
g2
S'hoor'
p858
sg4
I10
sa(dp859
g2
S'house'
p860
sg4
I10
sa(dp861
g2
S'httpt'
p862
sg4
I10
sa(dp863
g2
S'humble'
p864
sg4
I10
sa(dp865
g2
S'idlib'
p866
sg4
I10
sa(dp867
g2
S'instead'
p868
sg4
I10
sa(dp869
g2
S'issue'
p870
sg4
I10
sa(dp871
g2
S'jan'
p872
sg4
I10
sa(dp873
g2
S'kafir'
p874
sg4
I10
sa(dp875
g2
S'kareem'
p876
sg4
I10
sa(dp877
g2
S'khalid'
p878
sg4
I10
sa(dp879
g2
S'khorasan'
p880
sg4
I10
sa(dp881
g2
S'kids'
p882
sg4
I10
sa(dp883
g2
S'knew'
p884
sg4
I10
sa(dp885
g2
S'kufr'
p886
sg4
I10
sa(dp887
g2
S'law'
p888
sg4
I10
sa(dp889
g2
S'low'
p890
sg4
I10
sa(dp891
g2
S'makethemove'
p892
sg4
I10
sa(dp893
g2
S'manners'
p894
sg4
I10
sa(dp895
g2
S'martyrdom'
p896
sg4
I10
sa(dp897
g2
S'mashallah'
p898
sg4
I10
sa(dp899
g2
S'moment'
p900
sg4
I10
sa(dp901
g2
S'muhajir'
p902
sg4
I10
sa(dp903
g2
S'muhajireen'
p904
sg4
I10
sa(dp905
g2
S'n3rgid'
p906
sg4
I10
sa(dp907
g2
S'nadjmu'
p908
sg4
I10
sa(dp909
g2
S'nasir'
p910
sg4
I10
sa(dp911
g2
S'noticed'
p912
sg4
I10
sa(dp913
g2
S'others'
p914
sg4
I10
sa(dp915
g2
S'patience'
p916
sg4
I10
sa(dp917
g2
S'praise'
p918
sg4
I10
sa(dp919
g2
S'pretty'
p920
sg4
I10
sa(dp921
g2
S'proof'
p922
sg4
I10
sa(dp923
g2
S'read'
p924
sg4
I10
sa(dp925
g2
S'righteous'
p926
sg4
I10
sa(dp927
g2
S'rule'
p928
sg4
I10
sa(dp929
g2
S'salaf'
p930
sg4
I10
sa(dp931
g2
S'save'
p932
sg4
I10
sa(dp933
g2
S'scholar'
p934
sg4
I10
sa(dp935
g2
S'seen'
p936
sg4
I10
sa(dp937
g2
S'shame'
p938
sg4
I10
sa(dp939
g2
S'shariah'
p940
sg4
I10
sa(dp941
g2
S'shaykhs'
p942
sg4
I10
sa(dp943
g2
S'situation'
p944
sg4
I10
sa(dp945
g2
S'slander'
p946
sg4
I10
sa(dp947
g2
S'smiling'
p948
sg4
I10
sa(dp949
g2
S'son'
p950
sg4
I10
sa(dp951
g2
S'soul'
p952
sg4
I10
sa(dp953
g2
S'stand'
p954
sg4
I10
sa(dp955
g2
S'staying'
p956
sg4
I10
sa(dp957
g2
S'stuff'
p958
sg4
I10
sa(dp959
g2
S'syrian'
p960
sg4
I10
sa(dp961
g2
S'takes'
p962
sg4
I10
sa(dp963
g2
S'taking'
p964
sg4
I10
sa(dp965
g2
S'tawheed'
p966
sg4
I10
sa(dp967
g2
S'thanks'
p968
sg4
I10
sa(dp969
g2
S'thinking'
p970
sg4
I10
sa(dp971
g2
S'truthful'
p972
sg4
I10
sa(dp973
g2
S'tweet'
p974
sg4
I10
sa(dp975
g2
S'umar'
p976
sg4
I10
sa(dp977
g2
S'unite'
p978
sg4
I10
sa(dp979
g2
S'using'
p980
sg4
I10
sa(dp981
g2
S'w'
p982
sg4
I10
sa(dp983
g2
S'wan'
p984
sg4
I10
sa(dp985
g2
S'wants'
p986
sg4
I10
sa(dp987
g2
S'wealth'
p988
sg4
I10
sa(dp989
g2
S'whims'
p990
sg4
I10
sa(dp991
g2
S'word'
p992
sg4
I10
sa(dp993
g2
S'wrong'
p994
sg4
I10
sa(dp995
g2
S'yapping'
p996
sg4
I10
sa(dp997
g2
S'yemen'
p998
sg4
I10
sa(dp999
g2
S'yet'
p1000
sg4
I10
sa(dp1001
g2
S'absence'
p1002
sg4
I8
sa(dp1003
g2
S'adab'
p1004
sg4
I8
sa(dp1005
g2
S'addressing'
p1006
sg4
I8
sa(dp1007
g2
S'agree'
p1008
sg4
I8
sa(dp1009
g2
S'aint'
p1010
sg4
I8
sa(dp1011
g2
S'air'
p1012
sg4
I8
sa(dp1013
g2
S'alliance'
p1014
sg4
I8
sa(dp1015
g2
S'alshaam'
p1016
sg4
I8
sa(dp1017
g2
S'amen'
p1018
sg4
I8
sa(dp1019
g2
S'answered'
p1020
sg4
I8
sa(dp1021
g2
S'arabic'
p1022
sg4
I8
sa(dp1023
g2
S'attacking'
p1024
sg4
I8
sa(dp1025
g2
S'avoid'
p1026
sg4
I8
sa(dp1027
g2
S'ayah'
p1028
sg4
I8
sa(dp1029
g2
S'azzam'
p1030
sg4
I8
sa(dp1031
g2
S'bashars'
p1032
sg4
I8
sa(dp1033
g2
S'biladalshamdhi'
p1034
sg4
I8
sa(dp1035
g2
S'blackflagnews'
p1036
sg4
I8
sa(dp1037
g2
S'bother'
p1038
sg4
I8
sa(dp1039
g2
S'case'
p1040
sg4
I8
sa(dp1041
g2
S'certain'
p1042
sg4
I8
sa(dp1043
g2
S'claiming'
p1044
sg4
I8
sa(dp1045
g2
S'clear'
p1046
sg4
I8
sa(dp1047
g2
S'coalition'
p1048
sg4
I8
sa(dp1049
g2
S'conditions'
p1050
sg4
I8
sa(dp1051
g2
S'country'
p1052
sg4
I8
sa(dp1053
g2
S'd'
p1054
sg4
I8
sa(dp1055
g2
S'destroy'
p1056
sg4
I8
sa(dp1057
g2
S'easy'
p1058
sg4
I8
sa(dp1059
g2
S'eat'
p1060
sg4
I8
sa(dp1061
g2
S'eid'
p1062
sg4
I8
sa(dp1063
g2
S'else'
p1064
sg4
I8
sa(dp1065
g2
S'enough'
p1066
sg4
I8
sa(dp1067
g2
S'everybody'
p1068
sg4
I8
sa(dp1069
g2
S'exactly'
p1070
sg4
I8
sa(dp1071
g2
S'example'
p1072
sg4
I8
sa(dp1073
g2
S'experts'
p1074
sg4
I8
sa(dp1075
g2
S'followers'
p1076
sg4
I8
sa(dp1077
g2
S'food'
p1078
sg4
I8
sa(dp1079
g2
S'foot'
p1080
sg4
I8
sa(dp1081
g2
S'forth'
p1082
sg4
I8
sa(dp1083
g2
S'friends'
p1084
sg4
I8
sa(dp1085
g2
S'fulfill'
p1086
sg4
I8
sa(dp1087
g2
S'gates'
p1088
sg4
I8
sa(dp1089
g2
S'government'
p1090
sg4
I8
sa(dp1091
g2
S'govt'
p1092
sg4
I8
sa(dp1093
g2
S'gtwill'
p1094
sg4
I8
sa(dp1095
g2
S'guidance'
p1096
sg4
I8
sa(dp1097
g2
S'halab'
p1098
sg4
I8
sa(dp1099
g2
S'hand'
p1100
sg4
I8
sa(dp1101
g2
S'happen'
p1102
sg4
I8
sa(dp1103
g2
S'hardships'
p1104
sg4
I8
sa(dp1105
g2
S'hasnt'
p1106
sg4
I8
sa(dp1107
g2
S'hasten'
p1108
sg4
I8
sa(dp1109
g2
S'havent'
p1110
sg4
I8
sa(dp1111
g2
S'helping'
p1112
sg4
I8
sa(dp1113
g2
S'hit'
p1114
sg4
I8
sa(dp1115
g2
S'indeed'
p1116
sg4
I8
sa(dp1117
g2
S'intelligence'
p1118
sg4
I8
sa(dp1119
g2
S'jnisis'
p1120
sg4
I8
sa(dp1121
g2
S'job'
p1122
sg4
I8
sa(dp1123
g2
S'join'
p1124
sg4
I8
sa(dp1125
g2
S'joined'
p1126
sg4
I8
sa(dp1127
g2
S'justify'
p1128
sg4
I8
sa(dp1129
g2
S'khayr'
p1130
sg4
I8
sa(dp1131
g2
S'kk61raoof'
p1132
sg4
I8
sa(dp1133
g2
S'kufrbittaghout'
p1134
sg4
I8
sa(dp1135
g2
S'lands'
p1136
sg4
I8
sa(dp1137
g2
S'lions'
p1138
sg4
I8
sa(dp1139
g2
S'lost'
p1140
sg4
I8
sa(dp1141
g2
S'maqdis'
p1142
sg4
I8
sa(dp1143
g2
S'merciful'
p1144
sg4
I8
sa(dp1145
g2
S'minds'
p1146
sg4
I8
sa(dp1147
g2
S'mistakes'
p1148
sg4
I8
sa(dp1149
g2
S'money'
p1150
sg4
I8
sa(dp1151
g2
S'mypoint11'
p1152
sg4
I8
sa(dp1153
g2
S'najar'
p1154
sg4
I8
sa(dp1155
g2
S'nationalism'
p1156
sg4
I8
sa(dp1157
g2
S'nice'
p1158
sg4
I8
sa(dp1159
g2
S'nobody'
p1160
sg4
I8
sa(dp1161
g2
S'number'
p1162
sg4
I8
sa(dp1163
g2
S'obligation'
p1164
sg4
I8
sa(dp1165
g2
S'op'
p1166
sg4
I8
sa(dp1167
g2
S'outside'
p1168
sg4
I8
sa(dp1169
g2
S'pain'
p1170
sg4
I8
sa(dp1171
g2
S'paradise'
p1172
sg4
I8
sa(dp1173
g2
S'party'
p1174
sg4
I8
sa(dp1175
g2
S'pic'
p1176
sg4
I8
sa(dp1177
g2
S'play'
p1178
sg4
I8
sa(dp1179
g2
S'plp'
p1180
sg4
I8
sa(dp1181
g2
S'position'
p1182
sg4
I8
sa(dp1183
g2
S'post'
p1184
sg4
I8
sa(dp1185
g2
S'power'
p1186
sg4
I8
sa(dp1187
g2
S'ppl'
p1188
sg4
I8
sa(dp1189
g2
S'practicing'
p1190
sg4
I8
sa(dp1191
g2
S'pray'
p1192
sg4
I8
sa(dp1193
g2
S'probably'
p1194
sg4
I8
sa(dp1195
g2
S'promise'
p1196
sg4
I8
sa(dp1197
g2
S'q'
p1198
sg4
I8
sa(dp1199
g2
S'rather'
p1200
sg4
I8
sa(dp1201
g2
S'reality'
p1202
sg4
I8
sa(dp1203
g2
S'regarding'
p1204
sg4
I8
sa(dp1205
g2
S'replied'
p1206
sg4
I8
sa(dp1207
g2
S'respect'
p1208
sg4
I8
sa(dp1209
g2
S'salah'
p1210
sg4
I8
sa(dp1211
g2
S'scum'
p1212
sg4
I8
sa(dp1213
g2
S'self'
p1214
sg4
I8
sa(dp1215
g2
S'shaytan'
p1216
sg4
I8
sa(dp1217
g2
S'show'
p1218
sg4
I8
sa(dp1219
g2
S'shuhada'
p1220
sg4
I8
sa(dp1221
g2
S'sight'
p1222
sg4
I8
sa(dp1223
g2
S'since'
p1224
sg4
I8
sa(dp1225
g2
S'some1'
p1226
sg4
I8
sa(dp1227
g2
S'speaks'
p1228
sg4
I8
sa(dp1229
g2
S'spent'
p1230
sg4
I8
sa(dp1231
g2
S'spread'
p1232
sg4
I8
sa(dp1233
g2
S'starts'
p1234
sg4
I8
sa(dp1235
g2
S'talks'
p1236
sg4
I8
sa(dp1237
g2
S'th'
p1238
sg4
I8
sa(dp1239
g2
S'theyre'
p1240
sg4
I8
sa(dp1241
g2
S'times'
p1242
sg4
I8
sa(dp1243
g2
S'translation'
p1244
sg4
I8
sa(dp1245
g2
S'traveller94'
p1246
sg4
I8
sa(dp1247
g2
S'truly'
p1248
sg4
I8
sa(dp1249
g2
S'trust'
p1250
sg4
I8
sa(dp1251
g2
S'tweets'
p1252
sg4
I8
sa(dp1253
g2
S'type'
p1254
sg4
I8
sa(dp1255
g2
S'ulama'
p1256
sg4
I8
sa(dp1257
g2
S'usa'
p1258
sg4
I8
sa(dp1259
g2
S'usama'
p1260
sg4
I8
sa(dp1261
g2
S'used'
p1262
sg4
I8
sa(dp1263
g2
S'wali'
p1264
sg4
I8
sa(dp1265
g2
S'wallah'
p1266
sg4
I8
sa(dp1267
g2
S'whatever'
p1268
sg4
I8
sa(dp1269
g2
S'women'
p1270
sg4
I8
sa(dp1271
g2
S'worry'
p1272
sg4
I8
sa(dp1273
g2
S'worth'
p1274
sg4
I8
sa(dp1275
g2
S'wouldnt'
p1276
sg4
I8
sa(dp1277
g2
S'write'
p1278
sg4
I8
sa(dp1279
g2
S'wud'
p1280
sg4
I8
sa(dp1281
g2
S'yall'
p1282
sg4
I8
sa(dp1283
g2
S'year'
p1284
sg4
I8
sa(dp1285
g2
S'years'
p1286
sg4
I8
sa(dp1287
g2
S'yesterday'
p1288
sg4
I8
sa(dp1289
g2
S'abarumaysa'
p1290
sg4
I6
sa(dp1291
g2
S'able'
p1292
sg4
I6
sa(dp1293
g2
S'abstain'
p1294
sg4
I6
sa(dp1295
g2
S'abudujanamuhajr'
p1296
sg4
I6
sa(dp1297
g2
S'account'
p1298
sg4
I6
sa(dp1299
g2
S'accusations'
p1300
sg4
I6
sa(dp1301
g2
S'act'
p1302
sg4
I6
sa(dp1303
g2
S'activists'
p1304
sg4
I6
sa(dp1305
g2
S'affairs'
p1306
sg4
I6
sa(dp1307
g2
S'afghanistan'
p1308
sg4
I6
sa(dp1309
g2
S'airport'
p1310
sg4
I6
sa(dp1311
g2
S'alfahd'
p1312
sg4
I6
sa(dp1313
g2
S'alialamriki'
p1314
sg4
I6
sa(dp1315
g2
S'alnusra'
p1316
sg4
I6
sa(dp1317
g2
S'american'
p1318
sg4
I6
sa(dp1319
g2
S'amin'
p1320
sg4
I6
sa(dp1321
g2
S'amir'
p1322
sg4
I6
sa(dp1323
g2
S'anwar'
p1324
sg4
I6
sa(dp1325
g2
S'aq'
p1326
sg4
I6
sa(dp1327
g2
S'area'
p1328
sg4
I6
sa(dp1329
g2
S'argue'
p1330
sg4
I6
sa(dp1331
g2
S'arguments'
p1332
sg4
I6
sa(dp1333
g2
S'assistance'
p1334
sg4
I6
sa(dp1335
g2
S'ayman'
p1336
sg4
I6
sa(dp1337
g2
S'bad'
p1338
sg4
I6
sa(dp1339
g2
S'basher'
p1340
sg4
I6
sa(dp1341
g2
S'basically'
p1342
sg4
I6
sa(dp1343
g2
S'batil'
p1344
sg4
I6
sa(dp1345
g2
S'becomes'
p1346
sg4
I6
sa(dp1347
g2
S'bedouinmali'
p1348
sg4
I6
sa(dp1349
g2
S'behalf'
p1350
sg4
I6
sa(dp1351
g2
S'beyond'
p1352
sg4
I6
sa(dp1353
g2
S'biased'
p1354
sg4
I6
sa(dp1355
g2
S'blah'
p1356
sg4
I6
sa(dp1357
g2
S'bless'
p1358
sg4
I6
sa(dp1359
g2
S'blessings'
p1360
sg4
I6
sa(dp1361
g2
S'blow'
p1362
sg4
I6
sa(dp1363
g2
S'bombed'
p1364
sg4
I6
sa(dp1365
g2
S'book'
p1366
sg4
I6
sa(dp1367
g2
S'breakingnews'
p1368
sg4
I6
sa(dp1369
g2
S'bring'
p1370
sg4
I6
sa(dp1371
g2
S'brotherjalaal'
p1372
sg4
I6
sa(dp1373
g2
S'brought'
p1374
sg4
I6
sa(dp1375
g2
S'bukhari'
p1376
sg4
I6
sa(dp1377
g2
S'bullet'
p1378
sg4
I6
sa(dp1379
g2
S'callers'
p1380
sg4
I6
sa(dp1381
g2
S'careful'
p1382
sg4
I6
sa(dp1383
g2
S'charleslister'
p1384
sg4
I6
sa(dp1385
g2
S'civilians'
p1386
sg4
I6
sa(dp1387
g2
S'claim'
p1388
sg4
I6
sa(dp1389
g2
S'constant'
p1390
sg4
I6
sa(dp1391
g2
S'continue'
p1392
sg4
I6
sa(dp1393
g2
S'correct'
p1394
sg4
I6
sa(dp1395
g2
S'crazy'
p1396
sg4
I6
sa(dp1397
g2
S'created'
p1398
sg4
I6
sa(dp1399
g2
S'damage'
p1400
sg4
I6
sa(dp1401
g2
S'dawah'
p1402
sg4
I6
sa(dp1403
g2
S'dead'
p1404
sg4
I6
sa(dp1405
g2
S'deaths'
p1406
sg4
I6
sa(dp1407
g2
S'deeds'
p1408
sg4
I6
sa(dp1409
g2
S'defend'
p1410
sg4
I6
sa(dp1411
g2
S'defending'
p1412
sg4
I6
sa(dp1413
g2
S'describe'
p1414
sg4
I6
sa(dp1415
g2
S'desires'
p1416
sg4
I6
sa(dp1417
g2
S'deviants'
p1418
sg4
I6
sa(dp1419
g2
S'dier'
p1420
sg4
I6
sa(dp1421
g2
S'different'
p1422
sg4
I6
sa(dp1423
g2
S'directions'
p1424
sg4
I6
sa(dp1425
g2
S'dm'
p1426
sg4
I6
sa(dp1427
g2
S'drones'
p1428
sg4
I6
sa(dp1429
g2
S'duas'
p1430
sg4
I6
sa(dp1431
g2
S'dutch'
p1432
sg4
I6
sa(dp1433
g2
S'em'
p1434
sg4
I6
sa(dp1435
g2
S'enter'
p1436
sg4
I6
sa(dp1437
g2
S'europe'
p1438
sg4
I6
sa(dp1439
g2
S'fard'
p1440
sg4
I6
sa(dp1441
g2
S'fatawa'
p1442
sg4
I6
sa(dp1443
g2
S'fatih'
p1444
sg4
I6
sa(dp1445
g2
S'fatwas'
p1446
sg4
I6
sa(dp1447
g2
S'firmness'
p1448
sg4
I6
sa(dp1449
g2
S'fisabillah'
p1450
sg4
I6
sa(dp1451
g2
S'flag'
p1452
sg4
I6
sa(dp1453
g2
S'foreigners'
p1454
sg4
I6
sa(dp1455
g2
S'forgive'
p1456
sg4
I6
sa(dp1457
g2
S'fulfilling'
p1458
sg4
I6
sa(dp1459
g2
S'g'
p1460
sg4
I6
sa(dp1461
g2
S'getthefiqhoutofhere'
p1462
sg4
I6
sa(dp1463
g2
S'glorious'
p1464
sg4
I6
sa(dp1465
g2
S'guided'
p1466
sg4
I6
sa(dp1467
g2
S'guts'
p1468
sg4
I6
sa(dp1469
g2
S'hands'
p1470
sg4
I6
sa(dp1471
g2
S'happiness'
p1472
sg4
I6
sa(dp1473
g2
S'happing'
p1474
sg4
I6
sa(dp1475
g2
S'haram'
p1476
sg4
I6
sa(dp1477
g2
S'harm'
p1478
sg4
I6
sa(dp1479
g2
S'harryakh'
p1480
sg4
I6
sa(dp1481
g2
S'heads'
p1482
sg4
I6
sa(dp1483
g2
S'hear'
p1484
sg4
I6
sa(dp1485
g2
S'heavens'
p1486
sg4
I6
sa(dp1487
g2
S'hell'
p1488
sg4
I6
sa(dp1489
g2
S'hes'
p1490
sg4
I6
sa(dp1491
g2
S'hijra'
p1492
sg4
I6
sa(dp1493
g2
S'home'
p1494
sg4
I6
sa(dp1495
g2
S'homs'
p1496
sg4
I6
sa(dp1497
g2
S'honorable'
p1498
sg4
I6
sa(dp1499
g2
S'hope'
p1500
sg4
I6
sa(dp1501
g2
S'hopefully'
p1502
sg4
I6
sa(dp1503
g2
S'ibrahim'
p1504
sg4
I6
sa(dp1505
g2
S'independent'
p1506
sg4
I6
sa(dp1507
g2
S'indian'
p1508
sg4
I6
sa(dp1509
g2
S'innocent'
p1510
sg4
I6
sa(dp1511
g2
S'jawlani'
p1512
sg4
I6
sa(dp1513
g2
S'jews'
p1514
sg4
I6
sa(dp1515
g2
S'khurasan'
p1516
sg4
I6
sa(dp1517
g2
S'kid'
p1518
sg4
I6
sa(dp1519
g2
S'kills'
p1520
sg4
I6
sa(dp1521
g2
S'knowledgeable'
p1522
sg4
I6
sa(dp1523
g2
S'laden'
p1524
sg4
I6
sa(dp1525
g2
S'later'
p1526
sg4
I6
sa(dp1527
g2
S'leader'
p1528
sg4
I6
sa(dp1529
g2
S'learn'
p1530
sg4
I6
sa(dp1531
g2
S'less'
p1532
sg4
I6
sa(dp1533
g2
S'level'
p1534
sg4
I6
sa(dp1535
g2
S'limits'
p1536
sg4
I6
sa(dp1537
g2
S'local'
p1538
sg4
I6
sa(dp1539
g2
S'looking'
p1540
sg4
I6
sa(dp1541
g2
S'loyalty'
p1542
sg4
I6
sa(dp1543
g2
S'major'
p1544
sg4
I6
sa(dp1545
g2
S'manhaj'
p1546
sg4
I6
sa(dp1547
g2
S'marry'
p1548
sg4
I6
sa(dp1549
g2
S'martyr'
p1550
sg4
I6
sa(dp1551
g2
S'matters'
p1552
sg4
I6
sa(dp1553
g2
S'means'
p1554
sg4
I6
sa(dp1555
g2
S'middle'
p1556
sg4
I6
sa(dp1557
g2
S'military'
p1558
sg4
I6
sa(dp1559
g2
S'mind'
p1560
sg4
I6
sa(dp1561
g2
S'miracles'
p1562
sg4
I6
sa(dp1563
g2
S'misguided'
p1564
sg4
I6
sa(dp1565
g2
S'mistake'
p1566
sg4
I6
sa(dp1567
g2
S'mohammedghazzal'
p1568
sg4
I6
sa(dp1569
g2
S'morning'
p1570
sg4
I6
sa(dp1571
g2
S'muhajirishaam01'
p1572
sg4
I6
sa(dp1573
g2
S'mujahidun'
p1574
sg4
I6
sa(dp1575
g2
S'mujhid'
p1576
sg4
I6
sa(dp1577
g2
S'munirxu'
p1578
sg4
I6
sa(dp1579
g2
S'murjih'
p1580
sg4
I6
sa(dp1581
g2
S'mydearmujahid'
p1582
sg4
I6
sa(dp1583
g2
S'nah'
p1584
sg4
I6
sa(dp1585
g2
S'namelessukhti'
p1586
sg4
I6
sa(dp1587
g2
S'noble'
p1588
sg4
I6
sa(dp1589
g2
S'obey'
p1590
sg4
I6
sa(dp1591
g2
S'particular'
p1592
sg4
I6
sa(dp1593
g2
S'partners'
p1594
sg4
I6
sa(dp1595
g2
S'permission'
p1596
sg4
I6
sa(dp1597
g2
S'piety'
p1598
sg4
I6
sa(dp1599
g2
S'playing'
p1600
sg4
I6
sa(dp1601
g2
S'plot'
p1602
sg4
I6
sa(dp1603
g2
S'pocket'
p1604
sg4
I6
sa(dp1605
g2
S'possible'
p1606
sg4
I6
sa(dp1607
g2
S'powerful'
p1608
sg4
I6
sa(dp1609
g2
S'prepared'
p1610
sg4
I6
sa(dp1611
g2
S'price'
p1612
sg4
I6
sa(dp1613
g2
S'prophets'
p1614
sg4
I6
sa(dp1615
g2
S'prove'
p1616
sg4
I6
sa(dp1617
g2
S'pulled'
p1618
sg4
I6
sa(dp1619
g2
S'quote'
p1620
sg4
I6
sa(dp1621
g2
S'rabaish'
p1622
sg4
I6
sa(dp1623
g2
S'rabb'
p1624
sg4
I6
sa(dp1625
g2
S'raid'
p1626
sg4
I6
sa(dp1627
g2
S'raise'
p1628
sg4
I6
sa(dp1629
g2
S'ranks'
p1630
sg4
I6
sa(dp1631
g2
S'reaching'
p1632
sg4
I6
sa(dp1633
g2
S'recently'
p1634
sg4
I6
sa(dp1635
g2
S'reef'
p1636
sg4
I6
sa(dp1637
g2
S'refuge'
p1638
sg4
I6
sa(dp1639
g2
S'relax'
p1640
sg4
I6
sa(dp1641
g2
S'released'
p1642
sg4
I6
sa(dp1643
g2
S'ribaat'
p1644
sg4
I6
sa(dp1645
g2
S'role'
p1646
sg4
I6
sa(dp1647
g2
S'run'
p1648
sg4
I6
sa(dp1649
g2
S'salam'
p1650
sg4
I6
sa(dp1651
g2
S'screaming'
p1652
sg4
I6
sa(dp1653
g2
S'second'
p1654
sg4
I6
sa(dp1655
g2
S'seems'
p1656
sg4
I6
sa(dp1657
g2
S'senior'
p1658
sg4
I6
sa(dp1659
g2
S'sense'
p1660
sg4
I6
sa(dp1661
g2
S'sent'
p1662
sg4
I6
sa(dp1663
g2
S'shabaab'
p1664
sg4
I6
sa(dp1665
g2
S'shia'
p1666
sg4
I6
sa(dp1667
g2
S'sides'
p1668
sg4
I6
sa(dp1669
g2
S'silence'
p1670
sg4
I6
sa(dp1671
g2
S'simply'
p1672
sg4
I6
sa(dp1673
g2
S'sit'
p1674
sg4
I6
sa(dp1675
g2
S'sky'
p1676
sg4
I6
sa(dp1677
g2
S'sleep'
p1678
sg4
I6
sa(dp1679
g2
S'smh'
p1680
sg4
I6
sa(dp1681
g2
S'soldiers'
p1682
sg4
I6
sa(dp1683
g2
S'somali'
p1684
sg4
I6
sa(dp1685
g2
S'soon'
p1686
sg4
I6
sa(dp1687
g2
S'souls'
p1688
sg4
I6
sa(dp1689
g2
S'source'
p1690
sg4
I6
sa(dp1691
g2
S'speaker'
p1692
sg4
I6
sa(dp1693
g2
S'spreading'
p1694
sg4
I6
sa(dp1695
g2
S'stance'
p1696
sg4
I6
sa(dp1697
g2
S'statement'
p1698
sg4
I6
sa(dp1699
g2
S'status'
p1700
sg4
I6
sa(dp1701
g2
S'story'
p1702
sg4
I6
sa(dp1703
g2
S'strange'
p1704
sg4
I6
sa(dp1705
g2
S'sure'
p1706
sg4
I6
sa(dp1707
g2
S'taala'
p1708
sg4
I6
sa(dp1709
g2
S'takfir'
p1710
sg4
I6
sa(dp1711
g2
S'talha'
p1712
sg4
I6
sa(dp1713
g2
S'tend'
p1714
sg4
I6
sa(dp1715
g2
S'terrorist'
p1716
sg4
I6
sa(dp1717
g2
S'thank'
p1718
sg4
I6
sa(dp1719
g2
S'thebase'
p1720
sg4
I6
sa(dp1721
g2
S'theres'
p1722
sg4
I6
sa(dp1723
g2
S'together'
p1724
sg4
I6
sa(dp1725
g2
S'turning'
p1726
sg4
I6
sa(dp1727
g2
S'uk'
p1728
sg4
I6
sa(dp1729
g2
S'ummkhawla'
p1730
sg4
I6
sa(dp1731
g2
S'understanding'
p1732
sg4
I6
sa(dp1733
g2
S'via'
p1734
sg4
I6
sa(dp1735
g2
S'victories'
p1736
sg4
I6
sa(dp1737
g2
S'village'
p1738
sg4
I6
sa(dp1739
g2
S'wa'
p1740
sg4
I6
sa(dp1741
g2
S'wait'
p1742
sg4
I6
sa(dp1743
g2
S'walis'
p1744
sg4
I6
sa(dp1745
g2
S'wanted'
p1746
sg4
I6
sa(dp1747
g2
S'wasnt'
p1748
sg4
I6
sa(dp1749
g2
S'watch'
p1750
sg4
I6
sa(dp1751
g2
S'week'
p1752
sg4
I6
sa(dp1753
g2
S'went'
p1754
sg4
I6
sa(dp1755
g2
S'whilst'
p1756
sg4
I6
sa(dp1757
g2
S'wife'
p1758
sg4
I6
sa(dp1759
g2
S'wise'
p1760
sg4
I6
sa(dp1761
g2
S'woman'
p1762
sg4
I6
sa(dp1763
g2
S'wonder'
p1764
sg4
I6
sa(dp1765
g2
S'working'
p1766
sg4
I6
sa(dp1767
g2
S'worship'
p1768
sg4
I6
sa(dp1769
g2
S'worst'
p1770
sg4
I6
sa(dp1771
g2
S'wow'
p1772
sg4
I6
sa(dp1773
g2
S'youre'
p1774
sg4
I6
sa(dp1775
g2
S'z'
p1776
sg4
I6
sa.