(dp0
Vwkoss
p1
(dp2
S'closeness_centrality'
p3
(lp4
(I1
Vwkoss
p5
F0.961038961038961
tp6
a(I2
Vphartmann
p7
F0.48084437536770197
tp8
a(I3
Vfoconnell
p9
F0.48084437536770197
tp10
a(I4
Voberge
p11
F0.48084437536770197
tp12
a(I5
Vjryan
p13
F0.48084437536770197
tp14
a(I6
Vtmills
p15
F0.48084437536770197
tp16
a(I7
Vrthompson
p17
F0.48084437536770197
tp18
a(I8
Vubernhard
p19
F0.48084437536770197
tp20
a(I9
Vfmcdermott
p21
F0.48084437536770197
tp22
a(I10
Vlkonopelski
p23
F0.48084437536770197
tp24
a(I11
Vmkoepp
p25
F0.48084437536770197
tp26
a(I12
Vhabshire
p27
F0.48084437536770197
tp28
a(I13
Vbwatsica
p29
F0.48084437536770197
tp30
a(I14
Vlorn
p31
F0.48084437536770197
tp32
a(I15
Vrhoppe
p33
F0.48084437536770197
tp34
asS'betweenness_centrality'
p35
(lp36
(I1
g5
F0.9235471940283384
tp37
a(I2
S'6'
p38
F0.00019928056338979616
tp39
a(I3
S'4'
p40
F0.00017901474338405417
tp41
a(I4
S'20'
p42
F0.0001486160133754412
tp43
a(I5
S'14'
p44
F0.00014523837670781754
tp45
a(I6
S'24'
p46
F8.106328002296793e-05
tp47
a(I7
S'29'
p48
F4.3909276679107626e-05
tp49
a(I8
S'13'
p50
F4.3909276679107626e-05
tp51
a(I9
S'15'
p52
F4.3909276679107626e-05
tp53
a(I10
S'3'
p54
F4.3909276679107626e-05
tp55
a(I11
S'23'
p56
F6.7552733352473276e-06
tp57
a(I12
S'18'
p58
F6.7552733352473276e-06
tp59
a(I13
g7
F0.0
tp60
a(I14
g9
F0.0
tp61
a(I15
g11
F0.0
tp62
asS'stats'
p63
(dp64
S'Degree'
p65
(I740
S'The node degree is the number of edges adjacent to that node.'
p66
tp67
sS'Average Clustering'
p68
(F0.0
S'The average clustering coefficient for the graph.'
p69
tp70
sS'K Nearest Neighbors'
p71
((dp72
I0
F0.0
sI1
F732.1096256684492
sI2
F1.8571428571428572
sI3
F2.3333333333333335
sI740
F1.0
sS'the average degree connectivity of graph.\nThe average degree connectivity is the average nearest neighbor degree of nodes with degree k. For weighted graphs, an analogous measure can be computed using the weighted average neighbors degre'
p73
tp74
sS'Modularity'
p75
(F0.03931626297577861
S'The modularity of a partition of a graph.'
p76
tp77
sS'Center Node'
p78
(S'wkoss: 740.00000'
p79
S'The center most node in the graph. Which has the highest degree'
p80
tp81
sS'Edges'
p82
(I757
S'The number of edges within the Graph'
p83
tp84
sS'Nodes'
p85
(I771
S'The number of nodes within the Graph'
p86
tp87
sS'Transitivity'
p88
(F0.0
S'The fraction of all possible triangles present in the graph.'
p89
tp90
sS'Order'
p91
(I771
S'The number of nodes in the graph.'
p92
tp93
sS'Average Shortest Path Length'
p94
(F1.9973009446693657
S''
p95
tp96
sS'Size'
p97
(I757
S'The number of edges in the graph.'
p98
tp99
ssS'eigenvector_centrality'
p100
(lp101
(I1
g5
F0.7071067811865454
tp102
a(I2
Vcfay
p103
F0.06613000712661062
tp104
a(I3
Vdstamm
p105
F0.06613000712661062
tp106
a(I4
Vmthompson
p107
F0.0661300071266106
tp108
a(I5
Vgluettgen
p109
F0.0661300071266106
tp110
a(I6
Vewest
p111
F0.06613000712661059
tp112
a(I7
Vjwindler
p113
F0.04408667141774044
tp114
a(I8
Vwframi
p115
F0.04408667141774044
tp116
a(I9
g7
F0.04408667141774043
tp117
a(I10
Varenner
p118
F0.04408667141774043
tp119
a(I11
Vewitting
p120
F0.04408667141774043
tp121
a(I12
Vdschultz
p122
F0.04408667141774043
tp123
a(I13
Vmlittel
p124
F0.04408667141774043
tp125
a(I14
Vefriesen
p126
F0.04408667141774043
tp127
a(I15
Vjdeckow
p128
F0.04408667141774043
tp129
asS'degree_centrality'
p130
(lp131
(I1
g5
F0.961038961038961
tp132
a(I2
g38
F0.003896103896103896
tp133
a(I3
g42
F0.003896103896103896
tp134
a(I4
g44
F0.003896103896103896
tp135
a(I5
g40
F0.003896103896103896
tp136
a(I6
g46
F0.0025974025974025974
tp137
a(I7
g56
F0.0025974025974025974
tp138
a(I8
g48
F0.0025974025974025974
tp139
a(I9
g50
F0.0025974025974025974
tp140
a(I10
g52
F0.0025974025974025974
tp141
a(I11
g58
F0.0025974025974025974
tp142
a(I12
g54
F0.0025974025974025974
tp143
a(I13
g7
F0.0012987012987012987
tp144
a(I14
g9
F0.0012987012987012987
tp145
a(I15
g11
F0.0012987012987012987
tp146
assVaheaney
p147
(dp148
g3
(lp149
(I1
Vaheaney
p150
F0.9863263445761167
tp151
a(I2
Vsemard
p152
F0.4932771457505701
tp153
a(I3
Vrkoss
p154
F0.4932771457505701
tp155
a(I4
Vhdubuque
p156
F0.4932771457505701
tp157
a(I5
Vbwillms
p158
F0.4932771457505701
tp159
a(I6
Vdgreenholt
p160
F0.4932771457505701
tp161
a(I7
Vjschumm
p162
F0.4932771457505701
tp163
a(I8
Vrthompson
p164
F0.4932771457505701
tp165
a(I9
Vbcorwin
p166
F0.4932771457505701
tp167
a(I10
Vtbrekke
p168
F0.4932771457505701
tp169
a(I11
Vbmosciski
p170
F0.4932771457505701
tp171
a(I12
Vlschowalter
p172
F0.4932771457505701
tp173
a(I13
Vkchamplin
p174
F0.4932771457505701
tp175
a(I14
Vkcummings
p176
F0.4932771457505701
tp177
a(I15
Vnziemann
p178
F0.4932771457505701
tp179
asg35
(lp180
(I1
g150
F0.972833508125007
tp181
a(I2
S'17'
p182
F7.06648859115417e-06
tp183
a(I3
S'28'
p184
F6.650812791674513e-06
tp185
a(I4
g38
F6.235136992194856e-06
tp186
a(I5
g40
F5.403785393235542e-06
tp187
a(I6
S'19'
p188
F3.7410821953169135e-06
tp189
a(I7
S'5'
p190
F3.7410821953169135e-06
tp191
a(I8
S'22'
p192
F3.3254063958372565e-06
tp193
a(I9
g54
F2.9097305963575994e-06
tp194
a(I10
S'25'
p195
F2.0783789973982853e-06
tp196
a(I11
S'11'
p197
F8.313515989593141e-07
tp198
a(I12
S'10'
p199
F8.313515989593141e-07
tp200
a(I13
S'26'
p201
F8.313515989593141e-07
tp202
a(I14
S'9'
p203
F8.313515989593141e-07
tp204
a(I15
g152
F0.0
tp205
asg63
(dp206
g65
(I2166
g66
tp207
sg68
(F0.0
g69
tp208
sg71
((dp209
I0
F0.0
sI1
F2153.0790078089112
sI2
F1.9
sI3
F1.4444444444444444
sI2166
F1.9990766389658357
sg73
tp210
sg75
(F0.015587886130326332
g76
tp211
sg78
(S'aheaney: 2166.00000'
p212
g80
tp213
sg82
(I2186
g83
tp214
sg85
(I2195
g86
tp215
sg88
(F0.0
g89
tp216
sg91
(I2195
g92
tp217
sg94
(F1.9990762124711317
g95
tp218
sg97
(I2186
g98
tp219
ssg100
(lp220
(I1
g150
F0.7099577569029965
tp221
a(I2
Vagoldner
p222
F0.05690502776319704
tp223
a(I3
Vepredovic
p224
F0.05690502776319704
tp225
a(I4
Vehamill
p226
F0.04552402221055764
tp227
a(I5
Vrconnelly
p228
F0.045524022210557624
tp229
a(I6
Vablick
p230
F0.045524022210557624
tp231
a(I7
Vmwilliamson
p232
F0.045524022210557624
tp233
a(I8
Vlvon
p234
F0.045524022210557624
tp235
a(I9
Vdmarquardt
p236
F0.034143016657918246
tp237
a(I10
Vbaufderhar
p238
F0.03414301665791824
tp239
a(I11
Vdwaelchi
p240
F0.03414301665791824
tp241
a(I12
Vdmurray
p242
F0.03414301665791823
tp243
a(I13
Vmemard
p244
F0.03414301665791823
tp245
a(I14
Vnschowalter
p246
F0.03414301665791823
tp247
a(I15
Vbyundt
p248
F0.03414301665791823
tp249
asg130
(lp250
(I1
g150
F0.9872379216043755
tp251
a(I2
g182
F0.0013673655423883319
tp252
a(I3
g40
F0.0013673655423883319
tp253
a(I4
g190
F0.0013673655423883319
tp254
a(I5
g197
F0.0009115770282588879
tp255
a(I6
g199
F0.0009115770282588879
tp256
a(I7
g188
F0.0009115770282588879
tp257
a(I8
g54
F0.0009115770282588879
tp258
a(I9
g38
F0.0009115770282588879
tp259
a(I10
g195
F0.0009115770282588879
tp260
a(I11
g201
F0.0009115770282588879
tp261
a(I12
g192
F0.0009115770282588879
tp262
a(I13
g184
F0.0009115770282588879
tp263
a(I14
g203
F0.0009115770282588879
tp264
a(I15
g152
F0.00045578851412944393
tp265
assVuokeefe
p266
(dp267
g3
(lp268
(I1
Vuokeefe
p269
F0.930715935334873
tp270
a(I2
Vcgottlieb
p271
F0.4659360520993215
tp272
a(I3
Vjheaney
p273
F0.4659360520993215
tp274
a(I4
Vdkoch
p275
F0.4659360520993215
tp276
a(I5
Vlohara
p277
F0.4659360520993215
tp278
a(I6
Vubernhard
p279
F0.4659360520993215
tp280
a(I7
Vastamm
p281
F0.4659360520993215
tp282
a(I8
Vlherman
p283
F0.4659360520993215
tp284
a(I9
Vmkoepp
p285
F0.4659360520993215
tp286
a(I10
Vinikolaus
p287
F0.4659360520993215
tp288
a(I11
Vmprosacco
p289
F0.4659360520993215
tp290
a(I12
Vgbreitenberg
p291
F0.4659360520993215
tp292
a(I13
Vfemard
p293
F0.4659360520993215
tp294
a(I14
Vehansen
p295
F0.4659360520993215
tp296
a(I15
Vvbeer
p297
F0.4659360520993215
tp298
asg35
(lp299
(I1
g269
F0.8660828842699513
tp300
a(I2
S'1'
p301
F0.001144042425797622
tp302
a(I3
S'12'
p303
F0.0008981267641775725
tp304
a(I4
g40
F0.0008535768254782883
tp305
a(I5
S'14'
p306
F0.0008018988965871183
tp307
a(I6
S'23'
p308
F0.0006842870584210076
tp309
a(I7
S'28'
p310
F0.0005025233085279274
tp311
a(I8
S'20'
p312
F0.0004686653551164714
tp313
a(I9
g54
F0.00039560345564964504
tp314
a(I10
S'11'
p315
F0.0003849114703618168
tp316
a(I11
S'15'
p317
F0.00020314772046873663
tp318
a(I12
S'0'
p319
F0.00018889174008496565
tp320
a(I13
S'29'
p321
F6.058791663102672e-05
tp322
a(I14
g190
F5.880591908305534e-05
tp323
a(I15
S'22'
p324
F1.6037977931742366e-05
tp325
asg63
(dp326
g65
(I403
g66
tp327
sg68
(F0.0038402457757296463
g69
tp328
sg71
((dp329
I0
F0.0
sI1
F395.2189781021898
sI2
F3.0833333333333335
sI3
F3.0555555555555554
sI4
F2.75
sI5
F2.3
sI403
F1.0
sg73
tp330
sg75
(F0.10495496929001041
g76
tp331
sg78
(S'uokeefe: 403.00000'
p332
g80
tp333
sg82
(I429
g83
tp334
sg85
(I434
g86
tp335
sg88
(F3.701281877290168e-05
g89
tp336
sg91
(I434
g92
tp337
sg94
(F1.995049504950495
g95
tp338
sg97
(I429
g98
tp339
ssg100
(lp340
(I1
g269
F0.7071067811865487
tp341
a(I2
Vhortiz
p342
F0.06183924141031074
tp343
a(I3
g291
F0.06183924141031073
tp344
a(I4
Vjturcotte
p345
F0.06183924141031073
tp346
a(I5
Vmcronin
p347
F0.06183924141031073
tp348
a(I6
Vlwilderman
p349
F0.061839241410310726
tp350
a(I7
Vhrippin
p351
F0.061839241410310726
tp352
a(I8
Vaheaney
p353
F0.061839241410310726
tp354
a(I9
Vplindgren
p355
F0.06183924141031072
tp356
a(I10
Vrwisoky
p357
F0.06183924141031072
tp358
a(I11
Vaschimmel
p359
F0.06183924141031072
tp360
a(I12
Vjbartell
p361
F0.06183924141031072
tp362
a(I13
Vgbeer
p363
F0.06183924141031072
tp364
a(I14
Vikulas
p365
F0.06183924141031072
tp366
a(I15
Vnromaguera
p367
F0.06183924141031072
tp368
asg130
(lp369
(I1
g269
F0.930715935334873
tp370
a(I2
g312
F0.011547344110854504
tp371
a(I3
g40
F0.011547344110854504
tp372
a(I4
g301
F0.009237875288683603
tp373
a(I5
g319
F0.0069284064665127015
tp374
a(I6
g308
F0.0069284064665127015
tp375
a(I7
g310
F0.0069284064665127015
tp376
a(I8
g321
F0.0069284064665127015
tp377
a(I9
g315
F0.0069284064665127015
tp378
a(I10
g54
F0.0069284064665127015
tp379
a(I11
S'24'
p380
F0.004618937644341801
tp381
a(I12
g324
F0.004618937644341801
tp382
a(I13
g303
F0.004618937644341801
tp383
a(I14
g317
F0.004618937644341801
tp384
a(I15
g306
F0.004618937644341801
tp385
assVddooley
p386
(dp387
g3
(lp388
(I1
Vddooley
p389
F0.9787985865724381
tp390
a(I2
Vagutkowski
p391
F0.4895760355373156
tp392
a(I3
Vdbradtke
p393
F0.4895760355373156
tp394
a(I4
Vthoeger
p395
F0.4895760355373156
tp396
a(I5
Vlschowalter
p397
F0.4895760355373156
tp398
a(I6
Vrbailey
p399
F0.4895760355373156
tp400
a(I7
Vkchamplin
p401
F0.4895760355373156
tp402
a(I8
Vwzieme
p403
F0.4895760355373156
tp404
a(I9
Vcgutmann
p405
F0.4895760355373156
tp406
a(I10
Vkdaniel
p407
F0.4895760355373156
tp408
a(I11
Vmprosacco
p409
F0.4895760355373156
tp410
a(I12
Vmkeebler
p411
F0.4895760355373156
tp412
a(I13
Vkrenner
p413
F0.4895760355373156
tp414
a(I14
Veritchie
p415
F0.4895760355373156
tp416
a(I15
Vrpowlowski
p417
F0.4895760355373156
tp418
asg35
(lp419
(I1
g389
F0.9580319970411983
tp420
a(I2
g54
F2.3990283935006324e-05
tp421
a(I3
S'13'
p422
F1.9991903279171935e-05
tp423
a(I4
g203
F1.799271295125474e-05
tp424
a(I5
S'14'
p425
F1.3994332295420355e-05
tp426
a(I6
S'27'
p427
F7.996761311668774e-06
tp428
a(I7
S'21'
p429
F7.996761311668774e-06
tp430
a(I8
S'29'
p431
F7.996761311668774e-06
tp432
a(I9
S'11'
p433
F4.997975819792984e-06
tp434
a(I10
S'20'
p435
F2.9987854918757905e-06
tp436
a(I11
g38
F1.9991903279171936e-06
tp437
a(I12
S'22'
p438
F1.9991903279171936e-06
tp439
a(I13
g391
F0.0
tp440
a(I14
g393
F0.0
tp441
a(I15
g395
F0.0
tp442
asg63
(dp443
g65
(I1385
g66
tp444
sg68
(F0.0
g69
tp445
sg71
((dp446
I0
F0.0
sI1
F1373.118826055834
sI2
F1.8888888888888888
sI3
F1.6666666666666667
sI1385
F1.0
sg73
tp447
sg75
(F0.022668710866036154
g76
tp448
sg78
(S'ddooley: 1385.00000'
p449
g80
tp450
sg82
(I1403
g83
tp451
sg85
(I1416
g86
tp452
sg88
(F0.0
g89
tp453
sg91
(I1416
g92
tp454
sg94
(F1.9985569985569986
g95
tp455
sg97
(I1403
g98
tp456
ssg100
(lp457
(I1
g389
F0.707106781186535
tp458
a(I2
Vaabshire
p459
F0.06424925662032244
tp460
a(I3
Vchowe
p461
F0.048186942465241835
tp462
a(I4
Vcpowlowski
p463
F0.048186942465241835
tp464
a(I5
Vmblock
p465
F0.048186942465241835
tp466
a(I6
Vaborer
p467
F0.04818694246524183
tp468
a(I7
Vjcarter
p469
F0.04818694246524183
tp470
a(I8
Vjfay
p471
F0.04818694246524183
tp472
a(I9
Vmhomenick
p473
F0.04818694246524183
tp474
a(I10
Vahane
p475
F0.04818694246524183
tp476
a(I11
Vcpouros
p477
F0.04818694246524183
tp478
a(I12
Vmturcotte
p479
F0.04818694246524182
tp480
a(I13
Vjferry
p481
F0.04818694246524182
tp482
a(I14
Vmking
p483
F0.04818694246524182
tp484
a(I15
Vjpollich
p485
F0.04818694246524182
tp486
asg130
(lp487
(I1
g389
F0.9787985865724381
tp488
a(I2
g433
F0.0021201413427561835
tp489
a(I3
g54
F0.0021201413427561835
tp490
a(I4
g422
F0.0014134275618374558
tp491
a(I5
g425
F0.0014134275618374558
tp492
a(I6
g38
F0.0014134275618374558
tp493
a(I7
g427
F0.0014134275618374558
tp494
a(I8
g435
F0.0014134275618374558
tp495
a(I9
g429
F0.0014134275618374558
tp496
a(I10
g438
F0.0014134275618374558
tp497
a(I11
g431
F0.0014134275618374558
tp498
a(I12
g203
F0.0014134275618374558
tp499
a(I13
g391
F0.0007067137809187279
tp500
a(I14
g393
F0.0007067137809187279
tp501
a(I15
g395
F0.0007067137809187279
tp502
assValesch
p503
(dp504
g3
(lp505
(I1
Valesch
p506
F0.9751655629139073
tp507
a(I2
Vcluettgen
p508
F0.4877898229777422
tp509
a(I3
Vdspencer
p510
F0.4877898229777422
tp511
a(I4
Vmlang
p512
F0.4877898229777422
tp513
a(I5
Vemoore
p514
F0.4877898229777422
tp515
a(I6
Vewunsch
p516
F0.4877898229777422
tp517
a(I7
Vbhermann
p518
F0.4877898229777422
tp519
a(I8
Vhyost
p520
F0.4877898229777422
tp521
a(I9
Vhfeil
p522
F0.4877898229777422
tp523
a(I10
Vmlowe
p524
F0.4877898229777422
tp525
a(I11
Vtmitchell
p526
F0.4877898229777422
tp527
a(I12
Vpquitzon
p528
F0.4877898229777422
tp529
a(I13
Vygaylord
p530
F0.4877898229777422
tp531
a(I14
Vmharber
p532
F0.4877898229777422
tp533
a(I15
Vpbeatty
p534
F0.4877898229777422
tp535
asg35
(lp536
(I1
g506
F0.9509278107288061
tp537
a(I2
g301
F8.367305508156065e-05
tp538
a(I3
S'15'
p539
F8.367305508156065e-05
tp540
a(I4
S'29'
p541
F6.721278195076184e-05
tp542
a(I5
g54
F2.3318720268631656e-05
tp543
a(I6
S'21'
p544
F2.194703084106509e-05
tp545
a(I7
S'20'
p546
F1.9203651985931954e-05
tp547
a(I8
S'13'
p548
F1.9203651985931954e-05
tp549
a(I9
S'12'
p550
F1.9203651985931954e-05
tp551
a(I10
S'22'
p552
F1.0973515420532545e-05
tp553
a(I11
S'17'
p554
F9.601825992965977e-06
tp555
a(I12
S'2'
p556
F4.115068282699704e-06
tp557
a(I13
S'11'
p558
F1.371689427566568e-06
tp559
a(I14
g40
F1.371689427566568e-06
tp560
a(I15
g508
F0.0
tp561
asg63
(dp562
g65
(I1178
g66
tp563
sg68
(F0.0
g69
tp564
sg71
((dp565
I0
F0.0
sI1
F1167.121951219512
sI2
F2.1
sI3
F3.3333333333333335
sI4
F2.0
sI1178
F1.0
sg73
tp566
sg75
(F0.03203586162743753
g76
tp567
sg78
(S'alesch: 1178.00000'
p568
g80
tp569
sg82
(I1199
g83
tp570
sg85
(I1209
g86
tp571
sg88
(F0.0
g89
tp572
sg91
(I1209
g92
tp573
sg94
(F1.998303647158609
g95
tp574
sg97
(I1199
g98
tp575
ssg100
(lp576
(I1
g506
F0.7071067811865437
tp577
a(I2
Vmgusikowski
p578
F0.07369594973584172
tp579
a(I3
Vjleuschke
p580
F0.05527196230188129
tp581
a(I4
Vmklocko
p582
F0.055271962301881264
tp583
a(I5
Varobel
p584
F0.036847974867920866
tp585
a(I6
Vamcclure
p586
F0.03684797486792086
tp587
a(I7
Vcschultz
p588
F0.03684797486792086
tp589
a(I8
Vhlesch
p590
F0.03684797486792086
tp591
a(I9
Vcfeest
p592
F0.03684797486792085
tp593
a(I10
Vkking
p594
F0.03684797486792085
tp595
a(I11
Vaosinski
p596
F0.03684797486792085
tp597
a(I12
Vhcrona
p598
F0.03684797486792085
tp599
a(I13
Vmstiedemann
p600
F0.03684797486792085
tp601
a(I14
Vsgreenholt
p602
F0.03684797486792085
tp603
a(I15
Vjkessler
p604
F0.036847974867920845
tp605
asg130
(lp606
(I1
g506
F0.9751655629139073
tp607
a(I2
g541
F0.0033112582781456954
tp608
a(I3
g539
F0.0033112582781456954
tp609
a(I4
g301
F0.0024834437086092716
tp610
a(I5
g546
F0.0016556291390728477
tp611
a(I6
g544
F0.0016556291390728477
tp612
a(I7
g552
F0.0016556291390728477
tp613
a(I8
g556
F0.0016556291390728477
tp614
a(I9
g558
F0.0016556291390728477
tp615
a(I10
g548
F0.0016556291390728477
tp616
a(I11
g550
F0.0016556291390728477
tp617
a(I12
g554
F0.0016556291390728477
tp618
a(I13
g54
F0.0016556291390728477
tp619
a(I14
g40
F0.0016556291390728477
tp620
a(I15
g508
F0.0008278145695364238
tp621
assVsdeckow
p622
(dp623
g3
(lp624
(I1
S'18'
p625
F0.12903225806451613
tp626
a(I2
g54
F0.11612903225806451
tp627
a(I3
S'7'
p628
F0.0967741935483871
tp629
a(I4
g319
F0.08294930875576036
tp630
a(I5
S'8'
p631
F0.08294930875576036
tp632
a(I6
S'11'
p633
F0.08294930875576036
tp634
a(I7
S'21'
p635
F0.0683111954459203
tp636
a(I8
g556
F0.06451612903225806
tp637
a(I9
S'14'
p638
F0.06451612903225806
tp639
a(I10
S'24'
p640
F0.04301075268817204
tp641
a(I11
g301
F0.04301075268817204
tp642
a(I12
g203
F0.04301075268817204
tp643
a(I13
S'12'
p644
F0.04301075268817204
tp645
a(I14
S'26'
p646
F0.03225806451612903
tp647
a(I15
S'27'
p648
F0.03225806451612903
tp649
asg35
(lp650
(I1
g625
F0.023655913978494623
tp651
a(I2
g54
F0.017204301075268817
tp652
a(I3
g628
F0.010752688172043012
tp653
a(I4
g556
F0.002150537634408602
tp654
a(I5
g638
F0.002150537634408602
tp655
a(I6
S'22'
p656
F0.0
tp657
a(I7
g640
F0.0
tp658
a(I8
S'25'
p659
F0.0
tp660
a(I9
g646
F0.0
tp661
a(I10
g648
F0.0
tp662
a(I11
S'20'
p663
F0.0
tp664
a(I12
g635
F0.0
tp665
a(I13
Vsblick
p666
F0.0
tp667
a(I14
S'23'
p668
F0.0
tp669
a(I15
S'28'
p670
F0.0
tp671
asg63
(dp672
g65
(I3
g66
tp673
sg68
(F0.07291666666666666
g69
tp674
sg71
((dp675
I0
F0.0
sI1
F1.5833333333333333
sI2
F1.8
sI3
F2.1666666666666665
sg73
tp676
sg75
(F0.7622222222222221
g76
tp677
sg78
(S'3: 3.00000'
p678
g80
tp679
sg82
(I14
g83
tp680
sg85
(I32
g86
tp681
sg88
(F0.2727272727272727
g89
tp682
sg91
(I32
g92
tp683
sg94
(F1.3333333333333333
g95
tp684
sg97
(I14
g98
tp685
ssg100
(lp686
(I1
g54
F0.5714191958427394
tp687
a(I2
g633
F0.44056695813324376
tp688
a(I3
g631
F0.44056695813324337
tp689
a(I4
g625
F0.4314209715516182
tp690
a(I5
g628
F0.23173994458391942
tp691
a(I6
g319
F0.1878186024231867
tp692
a(I7
g635
F0.10088770687442306
tp693
a(I8
g668
F3.660303648934373e-17
tp694
a(I9
g40
F3.505799917139092e-17
tp695
a(I10
g659
F3.243056116494201e-17
tp696
a(I11
S'16'
p697
F3.225561904924684e-17
tp698
a(I12
S'13'
p699
F2.946870238939667e-17
tp700
a(I13
g648
F1.6159943833124913e-17
tp701
a(I14
g646
F1.5912481279166338e-17
tp702
a(I15
S'29'
p703
F9.580445791093227e-18
tp704
asg130
(lp705
(I1
g54
F0.0967741935483871
tp706
a(I2
g625
F0.0967741935483871
tp707
a(I3
g556
F0.06451612903225806
tp708
a(I4
g628
F0.06451612903225806
tp709
a(I5
g631
F0.06451612903225806
tp710
a(I6
g633
F0.06451612903225806
tp711
a(I7
g638
F0.06451612903225806
tp712
a(I8
g640
F0.03225806451612903
tp713
a(I9
g646
F0.03225806451612903
tp714
a(I10
g648
F0.03225806451612903
tp715
a(I11
g635
F0.03225806451612903
tp716
a(I12
g666
F0.03225806451612903
tp717
a(I13
g301
F0.03225806451612903
tp718
a(I14
g319
F0.03225806451612903
tp719
a(I15
g203
F0.03225806451612903
tp720
assS'all'
p721
(dp722
g3
(lp723
(I1
Vaheaney
p724
F0.6159364131552967
tp725
a(I2
Vmadams
p726
F0.531919327778004
tp727
a(I3
Vddooley
p728
F0.5262418833560809
tp729
a(I4
Vbaufderhar
p730
F0.5132057937740332
tp731
a(I5
Vwwest
p732
F0.502699921138286
tp733
a(I6
Vcwisozk
p734
F0.4978598357919056
tp735
a(I7
Vpschaden
p736
F0.4978598357919056
tp737
a(I8
Vemetz
p738
F0.4978598357919056
tp739
a(I9
Vnklein
p740
F0.4964995630165179
tp741
a(I10
Vfmills
p742
F0.4964995630165179
tp743
a(I11
Vgmarquardt
p744
F0.4964995630165179
tp745
a(I12
Vakoch
p746
F0.4964995630165179
tp747
a(I13
Vtmetz
p748
F0.4949925599067316
tp749
a(I14
Vkhamill
p750
F0.4949925599067316
tp751
a(I15
Vyfay
p752
F0.4936478890283758
tp753
asg63
(dp754
g65
(I2492
g66
tp755
sg68
(F0.27118200611515725
g69
tp756
sg71
((dp757
I0
F0.0
sI1
F1600.7193023803911
sI2
F1565.4371584699454
sI3
F1500.00061842919
sI4
F1438.5548076923078
sI5
F1411.41375
sI6
F1363.25
sI7
F1254.8035714285713
sI8
F1249.34375
sI9
F1178.111111111111
sI1291
F7.582494190549961
sI780
F7.8448717948717945
sI232
F12.633620689655173
sI1522
F6.819973718791064
sI1651
F6.5336159903089035
sI1265
F5.264822134387352
sI2492
F5.390048154093098
sI956
F10.005230125523013
sI414
F19.570048309178745
sg73
tp758
sg75
(F0.48758447250148407
g76
tp759
sg78
(S'54446d09474d79458e26fab8: 2492.00000'
p760
g80
tp761
sg82
(I10605
g83
tp762
sg85
(I6425
g86
tp763
sg88
(F0.002150817289675229
g89
tp764
sg91
(I6425
g92
tp765
sg94
(F2.768199759710588
g95
tp766
sg97
(I10605
g98
tp767
ssS'katz_centrality'
p768
(lp769
(I1
Vsdeckow
p770
F0.03529914134977423
tp771
a(I2
Vhschimmel
p772
F0.03529914134977423
tp773
a(I3
S'16'
p774
F0.03257892727204982
tp775
a(I4
g556
F0.03226872322208358
tp776
a(I5
Vschamplin
p777
F0.03216500627486572
tp778
a(I6
Vrdickens
p779
F0.03216500627486572
tp780
a(I7
Vjbrown
p781
F0.03216500627486572
tp782
a(I8
Vcmante
p783
F0.03216500627486566
tp784
a(I9
Vrhane
p785
F0.030667360495551865
tp786
a(I10
Vpsipes
p787
F0.03066736049555172
tp788
a(I11
S'22'
p789
F0.02986449665966375
tp790
a(I12
S'25'
p791
F0.02950074258599476
tp792
a(I13
S'18'
p793
F0.028881115649815287
tp794
a(I14
S'20'
p795
F0.028881115649815284
tp796
a(I15
Vuokeefe
p797
F0.027463803662502964
tp798
asg35
(lp799
(I1
g724
F0.45503130036173794
tp800
a(I2
g728
F0.25394472070636803
tp801
a(I3
g726
F0.24470724435604438
tp802
a(I4
g730
F0.20697414753117588
tp803
a(I5
Valesch
p804
F0.1693896469113474
tp805
a(I6
g732
F0.16393691960350992
tp806
a(I7
Vwkoss
p807
F0.09253442426845604
tp808
a(I8
g797
F0.034100651088453095
tp809
a(I9
Vkmclaughlin
p810
F0.013296905886524888
tp811
a(I10
g734
F0.000904570810803304
tp812
a(I11
g736
F0.000904570810803304
tp813
a(I12
g738
F0.000904570810803304
tp814
a(I13
g748
F0.0008238316067591007
tp815
a(I14
g750
F0.0008238316067591007
tp816
a(I15
g740
F0.0007688785832122466
tp817
asg100
(lp818
(I1
g724
F0.46769134451393296
tp819
a(I2
g726
F0.3443162148094086
tp820
a(I3
g728
F0.2591736008087643
tp821
a(I4
g730
F0.21519011383535838
tp822
a(I5
g732
F0.19496176342064866
tp823
a(I6
g804
F0.16068042961184895
tp824
a(I7
g797
F0.13818739488252654
tp825
a(I8
g807
F0.11957380923186232
tp826
a(I9
g810
F0.05196118174347216
tp827
a(I10
Vnzulauf
p828
F0.04138126543324453
tp829
a(I11
Vkoconner
p830
F0.04131500760008764
tp831
a(I12
Vbmante
p832
F0.041315007600087626
tp833
a(I13
g740
F0.0410739467936045
tp834
a(I14
Vzraynor
p835
F0.040298442763233605
tp836
a(I15
Vlbergnaum
p837
F0.037613453093343796
tp838
asg130
(lp839
(I1
g724
F0.387920298879203
tp840
a(I2
g726
F0.2570049813200498
tp841
a(I3
g728
F0.23692403486924035
tp842
a(I4
g730
F0.2009651307596513
tp843
a(I5
g804
F0.1969178082191781
tp844
a(I6
g732
F0.14881693648816938
tp845
a(I7
g807
F0.12141967621419676
tp846
a(I8
g797
F0.06444582814445828
tp847
a(I9
g810
F0.0361145703611457
tp848
a(I10
g734
F0.0014009962640099626
tp849
a(I11
g736
F0.0014009962640099626
tp850
a(I12
g738
F0.0014009962640099626
tp851
a(I13
g740
F0.0012453300124533001
tp852
a(I14
Vmbuckridge
p853
F0.0012453300124533001
tp854
a(I15
g835
F0.0012453300124533001
tp855
asS'Communities'
p856
I21
ssVwwest
p857
(dp858
g3
(lp859
(I1
Vwwest
p860
F0.9678111587982833
tp861
a(I2
Vthoppe
p862
F0.48417396851694483
tp863
a(I3
Vamraz
p864
F0.48417396851694483
tp865
a(I4
Vcraynor
p866
F0.48417396851694483
tp867
a(I5
Vsemard
p868
F0.48417396851694483
tp869
a(I6
Vjolson
p870
F0.48417396851694483
tp871
a(I7
Vemoore
p872
F0.48417396851694483
tp873
a(I8
Vsbednar
p874
F0.48417396851694483
tp875
a(I9
Vddeckow
p876
F0.48417396851694483
tp877
a(I10
Vdgreenholt
p878
F0.48417396851694483
tp879
a(I11
Vlluettgen
p880
F0.48417396851694483
tp881
a(I12
Vbcorwin
p882
F0.48417396851694483
tp883
a(I13
Vlherman
p884
F0.48417396851694483
tp885
a(I14
Vmarmstrong
p886
F0.48417396851694483
tp887
a(I15
Vljohnson
p888
F0.48417396851694483
tp889
asg35
(lp890
(I1
g860
F0.9366249775265878
tp891
a(I2
S'15'
p892
F0.0001640367011950477
tp893
a(I3
S'13'
p894
F0.0001521277135204658
tp895
a(I4
g38
F0.00013906624316769851
tp896
a(I5
S'21'
p897
F0.00013906624316769851
tp898
a(I6
S'25'
p899
F0.00013676127781132782
tp900
a(I7
g40
F0.00012907805995675885
tp901
a(I8
g628
F0.00011716907228217692
tp902
a(I9
g203
F0.00011716907228217692
tp903
a(I10
S'22'
p904
F0.00011447994603307779
tp905
a(I11
g631
F0.00011447994603307779
tp906
a(I12
S'20'
p907
F0.00011332746335489244
tp908
a(I13
S'10'
p909
F0.00011332746335489244
tp910
a(I14
g54
F0.00011255914156943554
tp911
a(I15
S'29'
p912
F0.00011102249799852176
tp913
asg63
(dp914
g65
(I902
g66
tp915
sg68
(F0.0
g69
tp916
sg71
((dp917
I0
F0.0
sI1
F894.0956043956044
sI2
F2.65
sI3
F2.0833333333333335
sI4
F1.875
sI902
F1.0
sg73
tp918
sg75
(F0.044545222141008034
g76
tp919
sg78
(S'wwest: 902.00000'
p920
g80
tp921
sg82
(I926
g83
tp922
sg85
(I933
g86
tp923
sg88
(F0.0
g89
tp924
sg91
(I933
g92
tp925
sg94
(F1.9977851605758583
g95
tp926
sg97
(I926
g98
tp927
ssg100
(lp928
(I1
g860
F0.7071067811865537
tp929
a(I2
Vawillms
p930
F0.07826604801948385
tp931
a(I3
Vrbernhard
p932
F0.058699536014612905
tp933
a(I4
Vklittel
p934
F0.0586995360146129
tp935
a(I5
Vjgreen
p936
F0.0586995360146129
tp937
a(I6
Vmsmith
p938
F0.05869953601461289
tp939
a(I7
Vsdenesik
p940
F0.05869953601461289
tp941
a(I8
Vgdaniel
p942
F0.058699536014612884
tp943
a(I9
Vakeeling
p944
F0.058699536014612884
tp945
a(I10
Vnpredovic
p946
F0.03913302400974195
tp947
a(I11
Vaheaney
p948
F0.03913302400974195
tp949
a(I12
Vgbatz
p950
F0.039133024009741946
tp951
a(I13
Vbpfannerstill
p952
F0.039133024009741946
tp953
a(I14
Vbsauer
p954
F0.039133024009741946
tp955
a(I15
Vjoberbrunner
p956
F0.039133024009741946
tp957
asg130
(lp958
(I1
g860
F0.9678111587982833
tp959
a(I2
g892
F0.004291845493562232
tp960
a(I3
g894
F0.004291845493562232
tp961
a(I4
g38
F0.003218884120171674
tp962
a(I5
g899
F0.003218884120171674
tp963
a(I6
g897
F0.003218884120171674
tp964
a(I7
g40
F0.003218884120171674
tp965
a(I8
g319
F0.002145922746781116
tp966
a(I9
S'24'
p967
F0.002145922746781116
tp968
a(I10
g907
F0.002145922746781116
tp969
a(I11
g904
F0.002145922746781116
tp970
a(I12
g628
F0.002145922746781116
tp971
a(I13
g909
F0.002145922746781116
tp972
a(I14
g631
F0.002145922746781116
tp973
a(I15
g54
F0.002145922746781116
tp974
assVkmclaughlin
p975
(dp976
g3
(lp977
(I1
Vkmclaughlin
p978
F0.8837209302325582
tp979
a(I2
Vbswaniawski
p980
F0.44283158701763353
tp981
a(I3
Vjmccullough
p982
F0.44283158701763353
tp983
a(I4
Vagutkowski
p984
F0.44283158701763353
tp985
a(I5
Vrframi
p986
F0.44283158701763353
tp987
a(I6
Vlcruickshank
p988
F0.44283158701763353
tp989
a(I7
Vckonopelski
p990
F0.44283158701763353
tp991
a(I8
Vaokeefe
p992
F0.44283158701763353
tp993
a(I9
Vlherman
p994
F0.44283158701763353
tp995
a(I10
Vdnolan
p996
F0.44283158701763353
tp997
a(I11
Vdcasper
p998
F0.44283158701763353
tp999
a(I12
Vfspencer
p1000
F0.44283158701763353
tp1001
a(I13
Vereilly
p1002
F0.44283158701763353
tp1003
a(I14
Vjmueller
p1004
F0.44283158701763353
tp1005
a(I15
Veklocko
p1006
F0.44283158701763353
tp1007
asg35
(lp1008
(I1
g978
F0.7805628449914035
tp1009
a(I2
S'21'
p1010
F0.0033898390291476877
tp1011
a(I3
S'27'
p1012
F0.0027750128193526975
tp1013
a(I4
S'28'
p1014
F0.0017092470264128937
tp1015
a(I5
S'13'
p1016
F0.0014568817301601666
tp1017
a(I6
S'16'
p1018
F0.001387506409676349
tp1019
a(I7
S'25'
p1020
F0.0011803858876521982
tp1021
a(I8
S'23'
p1022
F0.0010858745814858383
tp1023
a(I9
g190
F0.0009747735247690001
tp1024
a(I10
S'18'
p1025
F0.0006937532048381744
tp1026
a(I11
S'12'
p1027
F0.0006173398083632451
tp1028
a(I12
g54
F0.0006052745352356246
tp1029
a(I13
S'17'
p1030
F0.0005932092621080042
tp1031
a(I14
S'11'
p1032
F0.0005248393810514886
tp1033
a(I15
g628
F0.0003694989895333755
tp1034
asg63
(dp1035
g65
(I230
g66
tp1036
sg68
(F0.00682110682110682
g69
tp1037
sg71
((dp1038
I0
F0.0
sI1
F225.15450643776825
sI2
F3.3
sI3
F3.533333333333333
sI4
F1.75
sI5
F2.6
sI230
F1.991304347826087
sg73
tp1039
sg75
(F0.20695299816178941
g76
tp1040
sg78
(S'kmclaughlin: 230.00000'
p1041
g80
tp1042
sg82
(I261
g83
tp1043
sg85
(I259
g86
tp1044
sg88
(F0.00023122278315156652
g89
tp1045
sg91
(I259
g92
tp1046
sg94
(F1.9912663755458515
g95
tp1047
sg97
(I261
g98
tp1048
ssg100
(lp1049
(I1
g978
F0.7178991268263402
tp1050
a(I2
g998
F0.0856897896840142
tp1051
a(I3
Vswalsh
p1052
F0.08568978968401418
tp1053
a(I4
Vporn
p1054
F0.08568978968401417
tp1055
a(I5
Vctromp
p1056
F0.08568978968401417
tp1057
a(I6
Vnkovacek
p1058
F0.08568978968401417
tp1059
a(I7
Valesch
p1060
F0.08568978968401417
tp1061
a(I8
Vvkuhn
p1062
F0.08568978968401417
tp1063
a(I9
Vcparker
p1064
F0.08568978968401415
tp1065
a(I10
Vjgaylord
p1066
F0.08568978968401415
tp1067
a(I11
Vmcronin
p1068
F0.08568978968401415
tp1069
a(I12
Vckemmer
p1070
F0.08568978968401414
tp1071
a(I13
Vwkoss
p1072
F0.08568978968401413
tp1073
a(I14
Vtbruen
p1074
F0.04284489484200711
tp1075
a(I15
Vghettinger
p1076
F0.042844894842007104
tp1077
asg130
(lp1078
(I1
g978
F0.8914728682170543
tp1079
a(I2
g1010
F0.01937984496124031
tp1080
a(I3
g1016
F0.01937984496124031
tp1081
a(I4
g1018
F0.01937984496124031
tp1082
a(I5
g1014
F0.015503875968992248
tp1083
a(I6
g1020
F0.011627906976744186
tp1084
a(I7
g1012
F0.011627906976744186
tp1085
a(I8
g1022
F0.011627906976744186
tp1086
a(I9
g54
F0.011627906976744186
tp1087
a(I10
g628
F0.011627906976744186
tp1088
a(I11
g1032
F0.011627906976744186
tp1089
a(I12
g1027
F0.011627906976744186
tp1090
a(I13
g1025
F0.011627906976744186
tp1091
a(I14
g301
F0.011627906976744186
tp1092
a(I15
g190
F0.011627906976744186
tp1093
assVmadams
p1094
(dp1095
g3
(lp1096
(I1
Vmadams
p1097
F0.9804432855280313
tp1098
a(I2
Vamraz
p1099
F0.4903846695823609
tp1100
a(I3
Vsemard
p1101
F0.4903846695823609
tp1102
a(I4
Vhdubuque
p1103
F0.4903846695823609
tp1104
a(I5
Vmruecker
p1105
F0.4903846695823609
tp1106
a(I6
Vrschamberger
p1107
F0.4903846695823609
tp1108
a(I7
Vedavis
p1109
F0.4903846695823609
tp1110
a(I8
Vbbarrows
p1111
F0.4903846695823609
tp1112
a(I9
Vbcorwin
p1113
F0.4903846695823609
tp1114
a(I10
Velabadie
p1115
F0.4903846695823609
tp1116
a(I11
Vtbrekke
p1117
F0.4903846695823609
tp1118
a(I12
Vkjohnson
p1119
F0.4903846695823609
tp1120
a(I13
Vkdaniel
p1121
F0.4903846695823609
tp1122
a(I14
Vmprosacco
p1123
F0.4903846695823609
tp1124
a(I15
Vkrenner
p1125
F0.4903846695823609
tp1126
asg35
(lp1127
(I1
g1097
F0.9612565284726882
tp1128
a(I2
S'20'
p1129
F5.740718533846001e-05
tp1130
a(I3
S'18'
p1131
F5.4430516469058376e-05
tp1132
a(I4
g319
F5.358003964922934e-05
tp1133
a(I5
S'29'
p1134
F5.27295628294003e-05
tp1135
a(I6
S'28'
p1136
F3.7846218482392154e-05
tp1137
a(I7
S'27'
p1138
F2.5939543004785633e-05
tp1139
a(I8
g301
F2.4663827775042075e-05
tp1140
a(I9
g631
F2.2962874135384002e-05
tp1141
a(I10
S'11'
p1142
F1.8285251626324298e-05
tp1143
a(I11
S'21'
p1144
F7.654291378461334e-06
tp1145
a(I12
S'26'
p1146
F4.677622509059704e-06
tp1147
a(I13
g556
F3.827145689230667e-06
tp1148
a(I14
S'25'
p1149
F1.7009536396580743e-06
tp1150
a(I15
g1099
F0.0
tp1151
asg63
(dp1152
g65
(I1504
g66
tp1153
sg68
(F0.0
g69
tp1154
sg71
((dp1155
I0
F0.0
sI1
F1498.0331125827815
sI2
F2.5714285714285716
sI3
F2.111111111111111
sI1504
F1.0
sg73
tp1156
sg75
(F0.020571313098219256
g76
tp1157
sg78
(S'madams: 1504.00000'
p1158
g80
tp1159
sg82
(I1523
g83
tp1160
sg85
(I1535
g86
tp1161
sg88
(F0.0
g89
tp1162
sg91
(I1535
g92
tp1163
sg94
(F1.998671096345515
g95
tp1164
sg97
(I1523
g98
tp1165
ssg100
(lp1166
(I1
g1097
F0.707106781186551
tp1167
a(I2
Vvlebsack
p1168
F0.056410812732652055
tp1169
a(I3
Vmgibson
p1170
F0.05641081273265204
tp1171
a(I4
Vawindler
p1172
F0.056410812732652034
tp1173
a(I5
Vmkoss
p1174
F0.05641081273265203
tp1175
a(I6
Vehowe
p1176
F0.05641081273265202
tp1177
a(I7
Vcwehner
p1178
F0.042308109549489034
tp1179
a(I8
Vagutmann
p1180
F0.04230810954948903
tp1181
a(I9
Vjtrantow
p1182
F0.04230810954948903
tp1183
a(I10
Vrskiles
p1184
F0.04230810954948903
tp1185
a(I11
Vmhermann
p1186
F0.04230810954948903
tp1187
a(I12
Vbnitzsche
p1188
F0.04230810954948903
tp1189
a(I13
Vmreilly
p1190
F0.04230810954948903
tp1191
a(I14
Vckoelpin
p1192
F0.04230810954948903
tp1193
a(I15
Vmgaylord
p1194
F0.04230810954948903
tp1195
asg130
(lp1196
(I1
g1097
F0.9804432855280313
tp1197
a(I2
g301
F0.0019556714471968707
tp1198
a(I3
g1142
F0.0019556714471968707
tp1199
a(I4
g1138
F0.0019556714471968707
tp1200
a(I5
g1129
F0.0019556714471968707
tp1201
a(I6
g1136
F0.0019556714471968707
tp1202
a(I7
g1134
F0.0019556714471968707
tp1203
a(I8
g319
F0.001303780964797914
tp1204
a(I9
g556
F0.001303780964797914
tp1205
a(I10
g1131
F0.001303780964797914
tp1206
a(I11
g1144
F0.001303780964797914
tp1207
a(I12
g1149
F0.001303780964797914
tp1208
a(I13
g1146
F0.001303780964797914
tp1209
a(I14
g631
F0.001303780964797914
tp1210
a(I15
g1099
F0.000651890482398957
tp1211
assVbaufderhar
p1212
(dp1213
g3
(lp1214
(I1
Vbaufderhar
p1215
F0.9755301794453507
tp1216
a(I2
Veglover
p1217
F0.48796909017843554
tp1218
a(I3
Vcluettgen
p1219
F0.48796909017843554
tp1220
a(I4
Vpbeier
p1221
F0.48796909017843554
tp1222
a(I5
Vfoconnell
p1223
F0.48796909017843554
tp1224
a(I6
Vsstoltenberg
p1225
F0.48796909017843554
tp1226
a(I7
Vpwilkinson
p1227
F0.48796909017843554
tp1228
a(I8
Vemoore
p1229
F0.48796909017843554
tp1230
a(I9
Vrkreiger
p1231
F0.48796909017843554
tp1232
a(I10
Vcking
p1233
F0.48796909017843554
tp1234
a(I11
Vgwunsch
p1235
F0.48796909017843554
tp1236
a(I12
Vtskiles
p1237
F0.48796909017843554
tp1238
a(I13
Vmschuster
p1239
F0.48796909017843554
tp1240
a(I14
Vdgreenholt
p1241
F0.48796909017843554
tp1242
a(I15
Vmklein
p1243
F0.48796909017843554
tp1244
asg35
(lp1245
(I1
g1215
F0.9516396444385258
tp1246
a(I2
g631
F9.055498218863401e-05
tp1247
a(I3
g54
F7.65722275859773e-05
tp1248
a(I4
g38
F6.791623664147552e-05
tp1249
a(I5
S'17'
p1250
F6.39211638978593e-05
tp1251
a(I6
g190
F6.39211638978593e-05
tp1252
a(I7
S'24'
p1253
F6.258947298332057e-05
tp1254
a(I8
S'20'
p1255
F5.99260911542431e-05
tp1256
a(I9
S'18'
p1257
F5.926024569697373e-05
tp1258
a(I10
S'11'
p1259
F5.5931018410626895e-05
tp1260
a(I11
S'10'
p1261
F5.3933482038818794e-05
tp1262
a(I12
S'26'
p1263
F4.394580017977827e-05
tp1264
a(I13
g556
F3.995072743616207e-05
tp1265
a(I14
S'22'
p1266
F3.92848819788927e-05
tp1267
a(I15
S'23'
p1268
F2.5302127376235976e-05
tp1269
asg63
(dp1270
g65
(I1196
g66
tp1271
sg68
(F0.0015213257267047
g69
tp1272
sg71
((dp1273
I0
F0.0
sI1
F1187.0871369294605
sI2
F2.6363636363636362
sI3
F2.3333333333333335
sI4
F3.0
sI5
F2.4
sI1196
F1.0
sg73
tp1274
sg75
(F0.04187391868512113
g76
tp1275
sg78
(S'baufderhar: 1196.00000'
p1276
g80
tp1277
sg82
(I1225
g83
tp1278
sg85
(I1227
g86
tp1279
sg88
(F8.395659444067417e-06
g89
tp1280
sg91
(I1227
g92
tp1281
sg94
(F1.998329156223893
g95
tp1282
sg97
(I1225
g98
tp1283
ssg100
(lp1284
(I1
g1215
F0.7071067811865367
tp1285
a(I2
Vggerlach
p1286
F0.07016464154456133
tp1287
a(I3
Vmbraun
p1288
F0.052623481158421
tp1289
a(I4
Vksipes
p1290
F0.05262348115842099
tp1291
a(I5
Vcvolkman
p1292
F0.05262348115842099
tp1293
a(I6
Vcjones
p1294
F0.052623481158420984
tp1295
a(I7
Vmrohan
p1296
F0.052623481158420984
tp1297
a(I8
Vestanton
p1298
F0.052623481158420984
tp1299
a(I9
Vtherzog
p1300
F0.05262348115842098
tp1301
a(I10
Vshowe
p1302
F0.05262348115842098
tp1303
a(I11
Vaturner
p1304
F0.05262348115842098
tp1305
a(I12
Vemoen
p1306
F0.035082320772280684
tp1307
a(I13
Vbbarton
p1308
F0.035082320772280684
tp1309
a(I14
Vcchamplin
p1310
F0.035082320772280684
tp1311
a(I15
Verenner
p1312
F0.035082320772280684
tp1313
asg130
(lp1314
(I1
g1215
F0.9755301794453508
tp1315
a(I2
g1255
F0.004078303425774878
tp1316
a(I3
g1253
F0.0032626427406199023
tp1317
a(I4
g1268
F0.002446982055464927
tp1318
a(I5
g556
F0.002446982055464927
tp1319
a(I6
g1257
F0.002446982055464927
tp1320
a(I7
g54
F0.002446982055464927
tp1321
a(I8
g631
F0.002446982055464927
tp1322
a(I9
g190
F0.002446982055464927
tp1323
a(I10
g38
F0.0016313213703099511
tp1324
a(I11
g1263
F0.0016313213703099511
tp1325
a(I12
S'21'
p1326
F0.0016313213703099511
tp1327
a(I13
g1266
F0.0016313213703099511
tp1328
a(I14
g628
F0.0016313213703099511
tp1329
a(I15
g1259
F0.0016313213703099511
tp1330
ass.