(dp0
S'FROM_HIDDEN'
p1
(dp2
Vwkoss
p3
S'@AbuHussain104'
p4
sVaheaney
p5
S'@AbuTalha001'
p6
sVuokeefe
p7
S'@jab2victory'
p8
sVddooley
p9
S'@onthatpath3'
p10
sValesch
p11
S'@FarisBritani'
p12
sVsdeckow
p13
S'@AbuDujanah'
p14
sVwwest
p15
S'@AbooJihad2013'
p16
sVkmclaughlin
p17
S'@4bu_Muhaj1r'
p18
sVmadams
p19
S'@julaybeeeeb'
p20
sVbaufderhar
p21
S'@Dawlat_Islam2'
p22
ssS'HIDDEN'
p23
(dp24
g6
(VAbner Heaney
p25
g5
tp26
sg20
(VMurphy Adams
p27
g19
tp28
sg22
(VBert Aufderhar
p29
g21
tp30
sg10
(VDewayne Dooley
p31
g9
tp32
sg12
(VAlexanne Lesch
p33
g11
tp34
sg4
(VWilton Koss
p35
g3
tp36
sg8
(VUrsula O'Keefe
p37
g7
tp38
sg14
(VSamir Deckow
p39
g13
tp40
sg16
(VWhitney West
p41
g15
tp42
sg18
(VKaelyn McLaughlin
p43
g17
tp44
ssS'FAKENAME_FROM_NICKNAME'
p45
(dp46
g3
g35
sg5
g25
sg7
g37
sg9
g31
sg11
g33
sg13
g39
sg15
g41
sg17
g43
sg19
g27
sg21
g29
ss.