(lp0
(dp1
S'text'
p2
S'syria'
p3
sS'size'
p4
F0.015151515151515152
sa(dp5
g2
S'shamiwitness'
p6
sg4
F0.011019283746556474
sa(dp7
g2
S'memlikpasha'
p8
sg4
F0.009641873278236915
sa(dp9
g2
S'iraq'
p10
sg4
F0.006887052341597796
sa(dp11
g2
S'islam'
p12
sg4
F0.006887052341597796
sa(dp13
g2
S'state'
p14
sg4
F0.006887052341597796
sa(dp15
g2
S'abdullah'
p16
sg4
F0.005509641873278237
sa(dp17
g2
S'antipkk1'
p18
sg4
F0.005509641873278237
sa(dp19
g2
S'coalition'
p20
sg4
F0.005509641873278237
sa(dp21
g2
S'http'
p22
sg4
F0.005509641873278237
sa(dp23
g2
S'isis'
p24
sg4
F0.005509641873278237
sa(dp25
g2
S'islamic'
p26
sg4
F0.005509641873278237
sa(dp27
g2
S'la'
p28
sg4
F0.005509641873278237
sa(dp29
g2
S'like'
p30
sg4
F0.005509641873278237
sa(dp31
g2
S'ocalan'
p32
sg4
F0.005509641873278237
sa(dp33
g2
S'ramadi'
p34
sg4
F0.005509641873278237
sa(dp35
g2
S'reports'
p36
sg4
F0.005509641873278237
sa(dp37
g2
S'air'
p38
sg4
F0.004132231404958678
sa(dp39
g2
S'aircraft'
p40
sg4
F0.004132231404958678
sa(dp41
g2
S'also'
p42
sg4
F0.004132231404958678
sa(dp43
g2
S'breaking'
p44
sg4
F0.004132231404958678
sa(dp45
g2
S'british'
p46
sg4
F0.004132231404958678
sa(dp47
g2
S'city'
p48
sg4
F0.004132231404958678
sa(dp49
g2
S'flying'
p50
sg4
F0.004132231404958678
sa(dp51
g2
S'iraqi'
p52
sg4
F0.004132231404958678
sa(dp53
g2
S'killed'
p54
sg4
F0.004132231404958678
sa(dp55
g2
S'military'
p56
sg4
F0.004132231404958678
sa(dp57
g2
S'pilots'
p58
sg4
F0.004132231404958678
sa(dp59
g2
S'strikes'
p60
sg4
F0.004132231404958678
sa(dp61
g2
S'today'
p62
sg4
F0.004132231404958678
sa(dp63
g2
S'vvanwilgenburg'
p64
sg4
F0.004132231404958678
sa.