(lp0
(dp1
S'text'
p2
S'allah'
p3
sS'size'
p4
I1512
sa(dp5
g2
S'amp'
p6
sg4
I1136
sa(dp7
g2
S'ameen'
p8
sg4
I522
sa(dp9
g2
S'akhi'
p10
sg4
I386
sa(dp11
g2
S'ibnnabih'
p12
sg4
I292
sa(dp13
g2
S'dont'
p14
sg4
I240
sa(dp15
g2
S'good'
p16
sg4
I240
sa(dp17
g2
S'like'
p18
sg4
I238
sa(dp19
g2
S'abu'
p20
sg4
I228
sa(dp21
g2
S'mansurabusayf'
p22
sg4
I222
sa(dp23
g2
S'make'
p24
sg4
I212
sa(dp25
g2
S'shaa'
p26
sg4
I212
sa(dp27
g2
S'taimiyyah'
p28
sg4
I206
sa(dp29
g2
S'brother'
p30
sg4
I194
sa(dp31
g2
S'brothers'
p32
sg4
I180
sa(dp33
g2
S'love'
p34
sg4
I172
sa(dp35
g2
S'muslims'
p36
sg4
I164
sa(dp37
g2
S'know'
p38
sg4
I152
sa(dp39
g2
S'give'
p40
sg4
I148
sa(dp41
g2
S'julaybeeeeb'
p42
sg4
I146
sa(dp43
g2
S'people'
p44
sg4
I136
sa(dp45
g2
S'upon'
p46
sg4
I136
sa(dp47
g2
S'please'
p48
sg4
I134
sa(dp49
g2
S'ya'
p50
sg4
I134
sa(dp51
g2
S'thats'
p52
sg4
I132
sa(dp53
g2
S'al'
p54
sg4
I128
sa(dp55
g2
S'http'
p56
sg4
I124
sa(dp57
g2
S'killed'
p58
sg4
I122
sa(dp59
g2
S'shaykh'
p60
sg4
I122
sa(dp61
g2
S'munirxu'
p62
sg4
I118
sa(dp63
g2
S'see'
p64
sg4
I114
sa(dp65
g2
S'keep'
p66
sg4
I112
sa(dp67
g2
S'sister'
p68
sg4
I110
sa(dp69
g2
S'best'
p70
sg4
I108
sa(dp71
g2
S'said'
p72
sg4
I108
sa(dp73
g2
S'dua'
p74
sg4
I102
sa(dp75
g2
S'islam'
p76
sg4
I100
sa(dp77
g2
S'well'
p78
sg4
I100
sa(dp79
g2
S'im'
p80
sg4
I98
sa(dp81
g2
S'sisters'
p82
sg4
I98
sa(dp83
g2
S'muslim'
p84
sg4
I96
sa(dp85
g2
S'ibn'
p86
sg4
I94
sa(dp87
g2
S'think'
p88
sg4
I94
sa(dp89
g2
S'true'
p90
sg4
I92
sa(dp91
g2
S'yaa'
p92
sg4
I92
sa(dp93
g2
S'akhil'
p94
sg4
I90
sa(dp95
g2
S'syria'
p96
sg4
I90
sa(dp97
g2
S'even'
p98
sg4
I88
sa(dp99
g2
S'man'
p100
sg4
I88
sa(dp101
g2
S'accept'
p102
sg4
I86
sa(dp103
g2
S'cause'
p104
sg4
I86
sa(dp105
g2
S'much'
p106
sg4
I86
sa(dp107
g2
S'read'
p108
sg4
I86
sa(dp109
g2
S'always'
p110
sg4
I84
sa(dp111
g2
S'life'
p112
sg4
I84
sa(dp113
g2
S'never'
p114
sg4
I84
sa(dp115
g2
S'new'
p116
sg4
I84
sa(dp117
g2
S'grant'
p118
sg4
I82
sa(dp119
g2
S'let'
p120
sg4
I82
sa(dp121
g2
S'take'
p122
sg4
I82
sa(dp123
g2
S'time'
p124
sg4
I82
sa(dp125
g2
S'heart'
p126
sg4
I80
sa(dp127
g2
S'help'
p128
sg4
I80
sa(dp129
g2
S'say'
p130
sg4
I80
sa(dp131
g2
S'yeah'
p132
sg4
I80
sa(dp133
g2
S'aint'
p134
sg4
I78
sa(dp135
g2
S'ha'
p136
sg4
I78
sa(dp137
g2
S'isis'
p138
sg4
I78
sa(dp139
g2
S'sh'
p140
sg4
I78
sa(dp141
g2
S'sheikh'
p142
sg4
I78
sa(dp143
g2
S'stop'
p144
sg4
I78
sa(dp145
g2
S'way'
p146
sg4
I78
sa(dp147
g2
S'family'
p148
sg4
I76
sa(dp149
g2
S'ur'
p150
sg4
I76
sa(dp151
g2
S'isiswitness'
p152
sg4
I74
sa(dp153
g2
S'nickimanhaj'
p154
sg4
I74
sa(dp155
g2
S'right'
p156
sg4
I74
sa(dp157
g2
S'want'
p158
sg4
I74
sa(dp159
g2
S'abubaraa1'
p160
sg4
I72
sa(dp161
g2
S'jihad'
p162
sg4
I72
sa(dp163
g2
S'day'
p164
sg4
I70
sa(dp165
g2
S'farahgazan'
p166
sg4
I70
sa(dp167
g2
S'biladalshamdhi'
p168
sg4
I68
sa(dp169
g2
S'mujahidmusa123'
p170
sg4
I68
sa(dp171
g2
S'back'
p172
sg4
I66
sa(dp173
g2
S'bring'
p174
sg4
I66
sa(dp175
g2
S'duas'
p176
sg4
I66
sa(dp177
g2
S'fear'
p178
sg4
I64
sa(dp179
g2
S'go'
p180
sg4
I64
sa(dp181
g2
S'truth'
p182
sg4
I64
sa(dp183
g2
S'abusulayman321'
p184
sg4
I62
sa(dp185
g2
S'lol'
p186
sg4
I62
sa(dp187
g2
S'made'
p188
sg4
I62
sa(dp189
g2
S'protect'
p190
sg4
I62
sa(dp191
g2
S'ummah'
p192
sg4
I62
sa(dp193
g2
S'ask'
p194
sg4
I60
sa(dp195
g2
S'cant'
p196
sg4
I60
sa(dp197
g2
S'dawlatislam1'
p198
sg4
I60
sa(dp199
g2
S'get'
p200
sg4
I60
sa(dp201
g2
S'habibi'
p202
sg4
I60
sa(dp203
g2
S'mujahideen'
p204
sg4
I60
sa(dp205
g2
S'na'
p206
sg4
I60
sa(dp207
g2
S'come'
p208
sg4
I58
sa(dp209
g2
S'doesnt'
p210
sg4
I58
sa(dp211
g2
S'indeed'
p212
sg4
I58
sa(dp213
g2
S'ukhti'
p214
sg4
I58
sa(dp215
g2
S'death'
p216
sg4
I56
sa(dp217
g2
S'free'
p218
sg4
I56
sa(dp219
g2
S'guide'
p220
sg4
I56
sa(dp221
g2
S'khayr'
p222
sg4
I56
sa(dp223
g2
S'men'
p224
sg4
I56
sa(dp225
g2
S'nothing'
p226
sg4
I56
sa(dp227
g2
S'abdwd1'
p228
sg4
I54
sa(dp229
g2
S'abuayubmuhammad'
p230
sg4
I54
sa(dp231
g2
S'away'
p232
sg4
I54
sa(dp233
g2
S'blood'
p234
sg4
I54
sa(dp235
g2
S'follow'
p236
sg4
I54
sa(dp237
g2
S'real'
p238
sg4
I54
sa(dp239
g2
S'abughamad'
p240
sg4
I52
sa(dp241
g2
S'abusaalihah'
p242
sg4
I52
sa(dp243
g2
S'account'
p244
sg4
I52
sa(dp245
g2
S'big'
p246
sg4
I52
sa(dp247
g2
S'httpt'
p248
sg4
I52
sa(dp249
g2
S'imam'
p250
sg4
I52
sa(dp251
g2
S'remember'
p252
sg4
I52
sa(dp253
g2
S'sincere'
p254
sg4
I52
sa(dp255
g2
S'thing'
p256
sg4
I52
sa(dp257
g2
S'yet'
p258
sg4
I52
sa(dp259
g2
S'days'
p260
sg4
I50
sa(dp261
g2
S'dear'
p262
sg4
I50
sa(dp263
g2
S'gaza'
p264
sg4
I50
sa(dp265
g2
S'khorasanwitness'
p266
sg4
I50
sa(dp267
g2
S'sake'
p268
sg4
I50
sa(dp269
g2
S'silenttweep'
p270
sg4
I50
sa(dp271
g2
S'soon'
p272
sg4
I50
sa(dp273
g2
S'today'
p274
sg4
I50
sa(dp275
g2
S'used'
p276
sg4
I50
sa(dp277
g2
S'allahs'
p278
sg4
I48
sa(dp279
g2
S'anyone'
p280
sg4
I48
sa(dp281
g2
S'forget'
p282
sg4
I48
sa(dp283
g2
S'haqq'
p284
sg4
I48
sa(dp285
g2
S'khattab23'
p286
sg4
I48
sa(dp287
g2
S'muhammad'
p288
sg4
I48
sa(dp289
g2
S'person'
p290
sg4
I48
sa(dp291
g2
S'quran'
p292
sg4
I48
sa(dp293
g2
S'rabb'
p294
sg4
I48
sa(dp295
g2
S'really'
p296
sg4
I48
sa(dp297
g2
S'wa'
p298
sg4
I48
sa(dp299
g2
S'women'
p300
sg4
I48
sa(dp301
g2
S'amaturrahman'
p302
sg4
I46
sa(dp303
g2
S'authentictauhed'
p304
sg4
I46
sa(dp305
g2
S'irhabiyyah'
p306
sg4
I46
sa(dp307
g2
S'jakali'
p308
sg4
I46
sa(dp309
g2
S'kareem'
p310
sg4
I46
sa(dp311
g2
S'mujahid'
p312
sg4
I46
sa(dp313
g2
S'something'
p314
sg4
I46
sa(dp315
g2
S'ummdujanah'
p316
sg4
I46
sa(dp317
g2
S'world'
p318
sg4
I46
sa(dp319
g2
S'ahrar'
p320
sg4
I44
sa(dp321
g2
S'didnt'
p322
sg4
I44
sa(dp323
g2
S'got'
p324
sg4
I44
sa(dp325
g2
S'great'
p326
sg4
I44
sa(dp327
g2
S'hearts'
p328
sg4
I44
sa(dp329
g2
S'khalidmaghrebi'
p330
sg4
I44
sa(dp331
g2
S'moakhan'
p332
sg4
I44
sa(dp333
g2
S'nusra'
p334
sg4
I44
sa(dp335
g2
S'sad'
p336
sg4
I44
sa(dp337
g2
S'sherj'
p338
sg4
I44
sa(dp339
g2
S'since'
p340
sg4
I44
sa(dp341
g2
S'video'
p342
sg4
I44
sa(dp343
g2
S'words'
p344
sg4
I44
sa(dp345
g2
S'attack'
p346
sg4
I42
sa(dp347
g2
S'ayeshaab96'
p348
sg4
I42
sa(dp349
g2
S'bro'
p350
sg4
I42
sa(dp351
g2
S'jannah'
p352
sg4
I42
sa(dp353
g2
S'leader'
p354
sg4
I42
sa(dp355
g2
S'namelessukhti'
p356
sg4
I42
sa(dp357
g2
S'o'
p358
sg4
I42
sa(dp359
g2
S'shamiwitness'
p360
sg4
I42
sa(dp361
g2
S'ummabdulmalik'
p362
sg4
I42
sa(dp363
g2
S'victory'
p364
sg4
I42
sa(dp365
g2
S'without'
p366
sg4
I42
sa(dp367
g2
S'wrong'
p368
sg4
I42
sa(dp369
g2
S'z'
p370
sg4
I42
sa(dp371
g2
S'alfirdaws'
p372
sg4
I40
sa(dp373
g2
S'also'
p374
sg4
I40
sa(dp375
g2
S'better'
p376
sg4
I40
sa(dp377
g2
S'bil'
p378
sg4
I40
sa(dp379
g2
S'cheerleadunited'
p380
sg4
I40
sa(dp381
g2
S'friend'
p382
sg4
I40
sa(dp383
g2
S'greenbird14'
p384
sg4
I40
sa(dp385
g2
S'ill'
p386
sg4
I40
sa(dp387
g2
S'islamic'
p388
sg4
I40
sa(dp389
g2
S'mother'
p390
sg4
I40
sa(dp391
g2
S'need'
p392
sg4
I40
sa(dp393
g2
S'saw'
p394
sg4
I40
sa(dp395
g2
S'shinqity01'
p396
sg4
I40
sa(dp397
g2
S'war'
p398
sg4
I40
sa(dp399
g2
S'alhamdulillah'
p400
sg4
I38
sa(dp401
g2
S'believe'
p402
sg4
I38
sa(dp403
g2
S'destroy'
p404
sg4
I38
sa(dp405
g2
S'forgive'
p406
sg4
I38
sa(dp407
g2
S'last'
p408
sg4
I38
sa(dp409
g2
S'making'
p410
sg4
I38
sa(dp411
g2
S'maybe'
p412
sg4
I38
sa(dp413
g2
S'old'
p414
sg4
I38
sa(dp415
g2
S'ra'
p416
sg4
I38
sa(dp417
g2
S'saqransaar'
p418
sg4
I38
sa(dp419
g2
S'thetweetingzed'
p420
sg4
I38
sa(dp421
g2
S'umar'
p422
sg4
I38
sa(dp423
g2
S'wont'
p424
sg4
I38
sa(dp425
g2
S'absolutely'
p426
sg4
I36
sa(dp427
g2
S'abusuleiman'
p428
sg4
I36
sa(dp429
g2
S'ahmad'
p430
sg4
I36
sa(dp431
g2
S'bad'
p432
sg4
I36
sa(dp433
g2
S'gazaunderattack'
p434
sg4
I36
sa(dp435
g2
S'hasanmustafas'
p436
sg4
I36
sa(dp437
g2
S'jn'
p438
sg4
I36
sa(dp439
g2
S'leaders'
p440
sg4
I36
sa(dp441
g2
S'loads'
p442
sg4
I36
sa(dp443
g2
S'many'
p444
sg4
I36
sa(dp445
g2
S'news'
p446
sg4
I36
sa(dp447
g2
S'save'
p448
sg4
I36
sa(dp449
g2
S'still'
p450
sg4
I36
sa(dp451
g2
S'support'
p452
sg4
I36
sa(dp453
g2
S'ummaqsa'
p454
sg4
I36
sa(dp455
g2
S'wife'
p456
sg4
I36
sa(dp457
g2
S'agree'
p458
sg4
I34
sa(dp459
g2
S'beautiful'
p460
sg4
I34
sa(dp461
g2
S'become'
p462
sg4
I34
sa(dp463
g2
S'bless'
p464
sg4
I34
sa(dp465
g2
S'dawlatislam2'
p466
sg4
I34
sa(dp467
g2
S'deen'
p468
sg4
I34
sa(dp469
g2
S'freejahar02'
p470
sg4
I34
sa(dp471
g2
S'group'
p472
sg4
I34
sa(dp473
g2
S'h'
p474
sg4
I34
sa(dp475
g2
S'hate'
p476
sg4
I34
sa(dp477
g2
S'home'
p478
sg4
I34
sa(dp479
g2
S'ibnenu'
p480
sg4
I34
sa(dp481
g2
S'learn'
p482
sg4
I34
sa(dp483
g2
S'lionessgranger'
p484
sg4
I34
sa(dp485
g2
S'ok'
p486
sg4
I34
sa(dp487
g2
S'prophet'
p488
sg4
I34
sa(dp489
g2
S'sham'
p490
sg4
I34
sa(dp491
g2
S'shibntaymiyyah'
p492
sg4
I34
sa(dp493
g2
S'shuhada'
p494
sg4
I34
sa(dp495
g2
S'aboojihad2013'
p496
sg4
I32
sa(dp497
g2
S'anotherakh'
p498
sg4
I32
sa(dp499
g2
S'aq'
p500
sg4
I32
sa(dp501
g2
S'bintfood'
p502
sg4
I32
sa(dp503
g2
S'cowards'
p504
sg4
I32
sa(dp505
g2
S'dawla'
p506
sg4
I32
sa(dp507
g2
S'deeds'
p508
sg4
I32
sa(dp509
g2
S'enemies'
p510
sg4
I32
sa(dp511
g2
S'ever'
p512
sg4
I32
sa(dp513
g2
S'gave'
p514
sg4
I32
sa(dp515
g2
S'habeeb'
p516
sg4
I32
sa(dp517
g2
S'heard'
p518
sg4
I32
sa(dp519
g2
S'hell'
p520
sg4
I32
sa(dp521
g2
S'ive'
p522
sg4
I32
sa(dp523
g2
S'jubaadarda'
p524
sg4
I32
sa(dp525
g2
S'leave'
p526
sg4
I32
sa(dp527
g2
S'long'
p528
sg4
I32
sa(dp529
g2
S'makes'
p530
sg4
I32
sa(dp531
g2
S'martyrdom'
p532
sg4
I32
sa(dp533
g2
S'mercy'
p534
sg4
I32
sa(dp535
g2
S'near'
p536
sg4
I32
sa(dp537
g2
S'ones'
p538
sg4
I32
sa(dp539
g2
S'place'
p540
sg4
I32
sa(dp541
g2
S'regarding'
p542
sg4
I32
sa(dp543
g2
S'state'
p544
sg4
I32
sa(dp545
g2
S'usaama89'
p546
sg4
I32
sa(dp547
g2
S'watch'
p548
sg4
I32
sa(dp549
g2
S'years'
p550
sg4
I32
sa(dp551
g2
S'alqaeda'
p552
sg4
I30
sa(dp553
g2
S'ansariyya'
p554
sg4
I30
sa(dp555
g2
S'around'
p556
sg4
I30
sa(dp557
g2
S'believers'
p558
sg4
I30
sa(dp559
g2
S'bin'
p560
sg4
I30
sa(dp561
g2
S'children'
p562
sg4
I30
sa(dp563
g2
S'clear'
p564
sg4
I30
sa(dp565
g2
S'coming'
p566
sg4
I30
sa(dp567
g2
S'fight'
p568
sg4
I30
sa(dp569
g2
S'find'
p570
sg4
I30
sa(dp571
g2
S'first'
p572
sg4
I30
sa(dp573
g2
S'full'
p574
sg4
I30
sa(dp575
g2
S'gon'
p576
sg4
I30
sa(dp577
g2
S'guiltymuslim'
p578
sg4
I30
sa(dp579
g2
S'honor'
p580
sg4
I30
sa(dp581
g2
S'hope'
p582
sg4
I30
sa(dp583
g2
S'ia'
p584
sg4
I30
sa(dp585
g2
S'jtsar'
p586
sg4
I30
sa(dp587
g2
S'kids'
p588
sg4
I30
sa(dp589
g2
S'kill'
p590
sg4
I30
sa(dp591
g2
S'kuffar'
p592
sg4
I30
sa(dp593
g2
S'mean'
p594
sg4
I30
sa(dp595
g2
S'naam'
p596
sg4
I30
sa(dp597
g2
S'obama'
p598
sg4
I30
sa(dp599
g2
S'parents'
p600
sg4
I30
sa(dp601
g2
S'shes'
p602
sg4
I30
sa(dp603
g2
S'speech'
p604
sg4
I30
sa(dp605
g2
S'sunnah'
p606
sg4
I30
sa(dp607
g2
S'tell'
p608
sg4
I30
sa(dp609
g2
S'things'
p610
sg4
I30
sa(dp611
g2
S'til'
p612
sg4
I30
sa(dp613
g2
S'ummadidas'
p614
sg4
I30
sa(dp615
g2
S'understand'
p616
sg4
I30
sa(dp617
g2
S'word'
p618
sg4
I30
sa(dp619
g2
S'abubakr1924'
p620
sg4
I28
sa(dp621
g2
S'abueethar'
p622
sg4
I28
sa(dp623
g2
S'bayah'
p624
sg4
I28
sa(dp625
g2
S'beloved'
p626
sg4
I28
sa(dp627
g2
S'called'
p628
sg4
I28
sa(dp629
g2
S'carrierofsins'
p630
sg4
I28
sa(dp631
g2
S'case'
p632
sg4
I28
sa(dp633
g2
S'change'
p634
sg4
I28
sa(dp635
g2
S'done'
p636
sg4
I28
sa(dp637
g2
S'due'
p638
sg4
I28
sa(dp639
g2
S'everything'
p640
sg4
I28
sa(dp641
g2
S'evil'
p642
sg4
I28
sa(dp643
g2
S'except'
p644
sg4
I28
sa(dp645
g2
S'fighting'
p646
sg4
I28
sa(dp647
g2
S'front'
p648
sg4
I28
sa(dp649
g2
S'ghazishami'
p650
sg4
I28
sa(dp651
g2
S'haq'
p652
sg4
I28
sa(dp653
g2
S'hassan'
p654
sg4
I28
sa(dp655
g2
S'message'
p656
sg4
I28
sa(dp657
g2
S'n'
p658
sg4
I28
sa(dp659
g2
S'oh'
p660
sg4
I28
sa(dp661
g2
S'point'
p662
sg4
I28
sa(dp663
g2
S'reward'
p664
sg4
I28
sa(dp665
g2
S'rh'
p666
sg4
I28
sa(dp667
g2
S'salafiqueen'
p668
sg4
I28
sa(dp669
g2
S'someone'
p670
sg4
I28
sa(dp671
g2
S'stand'
p672
sg4
I28
sa(dp673
g2
S'sure'
p674
sg4
I28
sa(dp675
g2
S'turn'
p676
sg4
I28
sa(dp677
g2
S'unite'
p678
sg4
I28
sa(dp679
g2
S'wal'
p680
sg4
I28
sa(dp681
g2
S'went'
p682
sg4
I28
sa(dp683
g2
S'whats'
p684
sg4
I28
sa(dp685
g2
S'wish'
p686
sg4
I28
sa(dp687
g2
S'year'
p688
sg4
I28
sa(dp689
g2
S'yemen'
p690
sg4
I28
sa(dp691
g2
S'abdullah'
p692
sg4
I26
sa(dp693
g2
S'ahmedshaheed86'
p694
sg4
I26
sa(dp695
g2
S'akhy'
p696
sg4
I26
sa(dp697
g2
S'allahu'
p698
sg4
I26
sa(dp699
g2
S'amazing'
p700
sg4
I26
sa(dp701
g2
S'b'
p702
sg4
I26
sa(dp703
g2
S'blind'
p704
sg4
I26
sa(dp705
g2
S'call'
p706
sg4
I26
sa(dp707
g2
S'easy'
p708
sg4
I26
sa(dp709
g2
S'enterthetruthco'
p710
sg4
I26
sa(dp711
g2
S'groups'
p712
sg4
I26
sa(dp713
g2
S'innocent'
p714
sg4
I26
sa(dp715
g2
S'isisda3esh'
p716
sg4
I26
sa(dp717
g2
S'khawarij'
p718
sg4
I26
sa(dp719
g2
S'killing'
p720
sg4
I26
sa(dp721
g2
S'marry'
p722
sg4
I26
sa(dp723
g2
S'muhajirishaam01'
p724
sg4
I26
sa(dp725
g2
S'muslimprisoners'
p726
sg4
I26
sa(dp727
g2
S'path'
p728
sg4
I26
sa(dp729
g2
S'release'
p730
sg4
I26
sa(dp731
g2
S'retweetshaam'
p732
sg4
I26
sa(dp733
g2
S'saudi'
p734
sg4
I26
sa(dp735
g2
S'send'
p736
sg4
I26
sa(dp737
g2
S'son'
p738
sg4
I26
sa(dp739
g2
S'though'
p740
sg4
I26
sa(dp741
g2
S'ummwaqqas'
p742
sg4
I26
sa(dp743
g2
S'aameen'
p744
sg4
I24
sa(dp745
g2
S'abusaalihah1'
p746
sg4
I24
sa(dp747
g2
S'advice'
p748
sg4
I24
sa(dp749
g2
S'along'
p750
sg4
I24
sa(dp751
g2
S'arrested'
p752
sg4
I24
sa(dp753
g2
S'baghdadi'
p754
sg4
I24
sa(dp755
g2
S'getting'
p756
sg4
I24
sa(dp757
g2
S'greater'
p758
sg4
I24
sa(dp759
g2
S'guys'
p760
sg4
I24
sa(dp761
g2
S'important'
p762
sg4
I24
sa(dp763
g2
S'live'
p764
sg4
I24
sa(dp765
g2
S'look'
p766
sg4
I24
sa(dp767
g2
S'name'
p768
sg4
I24
sa(dp769
g2
S'noorarahman'
p770
sg4
I24
sa(dp771
g2
S'police'
p772
sg4
I24
sa(dp773
g2
S'ppl'
p774
sg4
I24
sa(dp775
g2
S'reason'
p776
sg4
I24
sa(dp777
g2
S'says'
p778
sg4
I24
sa(dp779
g2
S'shari'
p780
sg4
I24
sa(dp781
g2
S'shifa'
p782
sg4
I24
sa(dp783
g2
S'shouldnt'
p784
sg4
I24
sa(dp785
g2
S'statement'
p786
sg4
I24
sa(dp787
g2
S'stuff'
p788
sg4
I24
sa(dp789
g2
S'taala'
p790
sg4
I24
sa(dp791
g2
S'told'
p792
sg4
I24
sa(dp793
g2
S'youll'
p794
sg4
I24
sa(dp795
g2
S'abt'
p796
sg4
I22
sa(dp797
g2
S'abudujanahmartydom'
p798
sg4
I22
sa(dp799
g2
S'abushuyaibhindi'
p800
sg4
I22
sa(dp801
g2
S'act'
p802
sg4
I22
sa(dp803
g2
S'aid'
p804
sg4
I22
sa(dp805
g2
S'aiishak'
p806
sg4
I22
sa(dp807
g2
S'alnusra'
p808
sg4
I22
sa(dp809
g2
S'american'
p810
sg4
I22
sa(dp811
g2
S'amongst'
p812
sg4
I22
sa(dp813
g2
S'aqap'
p814
sg4
I22
sa(dp815
g2
S'assad'
p816
sg4
I22
sa(dp817
g2
S'barakallahu'
p818
sg4
I22
sa(dp819
g2
S'bombs'
p820
sg4
I22
sa(dp821
g2
S'comes'
p822
sg4
I22
sa(dp823
g2
S'condition'
p824
sg4
I22
sa(dp825
g2
S'doubt'
p826
sg4
I22
sa(dp827
g2
S'especially'
p828
sg4
I22
sa(dp829
g2
S'everyone'
p830
sg4
I22
sa(dp831
g2
S'firm'
p832
sg4
I22
sa(dp833
g2
S'friends'
p834
sg4
I22
sa(dp835
g2
S'happy'
p836
sg4
I22
sa(dp837
g2
S'hard'
p838
sg4
I22
sa(dp839
g2
S'head'
p840
sg4
I22
sa(dp841
g2
S'jan'
p842
sg4
I22
sa(dp843
g2
S'jazakhallahu'
p844
sg4
I22
sa(dp845
g2
S'khorasan313'
p846
sg4
I22
sa(dp847
g2
S'kind'
p848
sg4
I22
sa(dp849
g2
S'knows'
p850
sg4
I22
sa(dp851
g2
S'little'
p852
sg4
I22
sa(dp853
g2
S'married'
p854
sg4
I22
sa(dp855
g2
S'mind'
p856
sg4
I22
sa(dp857
g2
S'next'
p858
sg4
I22
sa(dp859
g2
S'onthatpath3'
p860
sg4
I22
sa(dp861
g2
S'part'
p862
sg4
I22
sa(dp863
g2
S'put'
p864
sg4
I22
sa(dp865
g2
S'respect'
p866
sg4
I22
sa(dp867
g2
S'sabr'
p868
sg4
I22
sa(dp869
g2
S'salaf'
p870
sg4
I22
sa(dp871
g2
S'serious'
p872
sg4
I22
sa(dp873
g2
S'truly'
p874
sg4
I22
sa(dp875
g2
S'trust'
p876
sg4
I22
sa(dp877
g2
S'twitter'
p878
sg4
I22
sa(dp879
g2
S'vid'
p880
sg4
I22
sa(dp881
g2
S'wan'
p882
sg4
I22
sa(dp883
g2
S'akbar'
p884
sg4
I20
sa(dp885
g2
S'alone'
p886
sg4
I20
sa(dp887
g2
S'alsham'
p888
sg4
I20
sa(dp889
g2
S'alwalawalbara'
p890
sg4
I20
sa(dp891
g2
S'ameeranaabudua'
p892
sg4
I20
sa(dp893
g2
S'amir'
p894
sg4
I20
sa(dp895
g2
S'army'
p896
sg4
I20
sa(dp897
g2
S'attacked'
p898
sg4
I20
sa(dp899
g2
S'bombing'
p900
sg4
I20
sa(dp901
g2
S'die'
p902
sg4
I20
sa(dp903
g2
S'dirty'
p904
sg4
I20
sa(dp905
g2
S'eid'
p906
sg4
I20
sa(dp907
g2
S'english'
p908
sg4
I20
sa(dp909
g2
S'expect'
p910
sg4
I20
sa(dp911
g2
S'frm'
p912
sg4
I20
sa(dp913
g2
S'hadith'
p914
sg4
I20
sa(dp915
g2
S'havent'
p916
sg4
I20
sa(dp917
g2
S'humble'
p918
sg4
I20
sa(dp919
g2
S'including'
p920
sg4
I20
sa(dp921
g2
S'iraq'
p922
sg4
I20
sa(dp923
g2
S'isnt'
p924
sg4
I20
sa(dp925
g2
S'israel'
p926
sg4
I20
sa(dp927
g2
S'jabhat'
p928
sg4
I20
sa(dp929
g2
S'justice'
p930
sg4
I20
sa(dp931
g2
S'lord'
p932
sg4
I20
sa(dp933
g2
S'lost'
p934
sg4
I20
sa(dp935
g2
S'manners'
p936
sg4
I20
sa(dp937
g2
S'martyred'
p938
sg4
I20
sa(dp939
g2
S'masha'
p940
sg4
I20
sa(dp941
g2
S'matter'
p942
sg4
I20
sa(dp943
g2
S'merciful'
p944
sg4
I20
sa(dp945
g2
S'omar'
p946
sg4
I20
sa(dp947
g2
S'operationlibyia'
p948
sg4
I20
sa(dp949
g2
S'pain'
p950
sg4
I20
sa(dp951
g2
S'patience'
p952
sg4
I20
sa(dp953
g2
S'patient'
p954
sg4
I20
sa(dp955
g2
S'pls'
p956
sg4
I20
sa(dp957
g2
S'raise'
p958
sg4
I20
sa(dp959
g2
S'ranks'
p960
sg4
I20
sa(dp961
g2
S'released'
p962
sg4
I20
sa(dp963
g2
S'saying'
p964
sg4
I20
sa(dp965
g2
S'seek'
p966
sg4
I20
sa(dp967
g2
S'show'
p968
sg4
I20
sa(dp969
g2
S'sis'
p970
sg4
I20
sa(dp971
g2
S'story'
p972
sg4
I20
sa(dp973
g2
S'talk'
p974
sg4
I20
sa(dp975
g2
S'thought'
p976
sg4
I20
sa(dp977
g2
S'times'
p978
sg4
I20
sa(dp979
g2
S'ummmuthannah77'
p980
sg4
I20
sa(dp981
g2
S'walaahi'
p982
sg4
I20
sa(dp983
g2
S'woman'
p984
sg4
I20
sa(dp985
g2
S'worship'
p986
sg4
I20
sa(dp987
g2
S'yazidmuawiyaa'
p988
sg4
I20
sa(dp989
g2
S'abuizzadeen1924'
p990
sg4
I18
sa(dp991
g2
S'abujibreel'
p992
sg4
I18
sa(dp993
g2
S'akh'
p994
sg4
I18
sa(dp995
g2
S'among'
p996
sg4
I18
sa(dp997
g2
S'anjemchoudary'
p998
sg4
I18
sa(dp999
g2
S'anything'
p1000
sg4
I18
sa(dp1001
g2
S'book'
p1002
sg4
I18
sa(dp1003
g2
S'brotherhood'
p1004
sg4
I18
sa(dp1005
g2
S'came'
p1006
sg4
I18
sa(dp1007
g2
S'daleel'
p1008
sg4
I18
sa(dp1009
g2
S'dead'
p1010
sg4
I18
sa(dp1011
g2
S'dog'
p1012
sg4
I18
sa(dp1013
g2
S'dr'
p1014
sg4
I18
sa(dp1015
g2
S'dunya'
p1016
sg4
I18
sa(dp1017
g2
S'else'
p1018
sg4
I18
sa(dp1019
g2
S'fitna'
p1020
sg4
I18
sa(dp1021
g2
S'hasten'
p1022
sg4
I18
sa(dp1023
g2
S'htt'
p1024
sg4
I18
sa(dp1025
g2
S'https'
p1026
sg4
I18
sa(dp1027
g2
S'httptco'
p1028
sg4
I18
sa(dp1029
g2
S'ilm'
p1030
sg4
I18
sa(dp1031
g2
S'jazakiallahu'
p1032
sg4
I18
sa(dp1033
g2
S'join'
p1034
sg4
I18
sa(dp1035
g2
S'khattab'
p1036
sg4
I18
sa(dp1037
g2
S'lack'
p1038
sg4
I18
sa(dp1039
g2
S'lateefah77'
p1040
sg4
I18
sa(dp1041
g2
S'left'
p1042
sg4
I18
sa(dp1043
g2
S'link'
p1044
sg4
I18
sa(dp1045
g2
S'living'
p1046
sg4
I18
sa(dp1047
g2
S'loves'
p1048
sg4
I18
sa(dp1049
g2
S'marriage'
p1050
sg4
I18
sa(dp1051
g2
S'means'
p1052
sg4
I18
sa(dp1053
g2
S'pleased'
p1054
sg4
I18
sa(dp1055
g2
S'pray'
p1056
sg4
I18
sa(dp1057
g2
S'report'
p1058
sg4
I18
sa(dp1059
g2
S'seems'
p1060
sg4
I18
sa(dp1061
g2
S'share'
p1062
sg4
I18
sa(dp1063
g2
S'somalia'
p1064
sg4
I18
sa(dp1065
g2
S'sorry'
p1066
sg4
I18
sa(dp1067
g2
S'speak'
p1068
sg4
I18
sa(dp1069
g2
S'strivingsalafi'
p1070
sg4
I18
sa(dp1071
g2
S'strong'
p1072
sg4
I18
sa(dp1073
g2
S'swt'
p1074
sg4
I18
sa(dp1075
g2
S'syrian'
p1076
sg4
I18
sa(dp1077
g2
S'towards'
p1078
sg4
I18
sa(dp1079
g2
S'try'
p1080
sg4
I18
sa(dp1081
g2
S'verily'
p1082
sg4
I18
sa(dp1083
g2
S'watching'
p1084
sg4
I18
sa(dp1085
g2
S'west'
p1086
sg4
I18
sa(dp1087
g2
S'worldwide'
p1088
sg4
I18
sa(dp1089
g2
S'worth'
p1090
sg4
I18
sa(dp1091
g2
S'abdulsalaamm'
p1092
sg4
I16
sa(dp1093
g2
S'abuturab911'
p1094
sg4
I16
sa(dp1095
g2
S'alan'
p1096
sg4
I16
sa(dp1097
g2
S'altarefeen'
p1098
sg4
I16
sa(dp1099
g2
S'anwar'
p1100
sg4
I16
sa(dp1101
g2
S'arrest'
p1102
sg4
I16
sa(dp1103
g2
S'ayman'
p1104
sg4
I16
sa(dp1105
g2
S'based'
p1106
sg4
I16
sa(dp1107
g2
S'blessed'
p1108
sg4
I16
sa(dp1109
g2
S'breaking'
p1110
sg4
I16
sa(dp1111
g2
S'british'
p1112
sg4
I16
sa(dp1113
g2
S'child'
p1114
sg4
I16
sa(dp1115
g2
S'complete'
p1116
sg4
I16
sa(dp1117
g2
S'cuz'
p1118
sg4
I16
sa(dp1119
g2
S'disagree'
p1120
sg4
I16
sa(dp1121
g2
S'etc'
p1122
sg4
I16
sa(dp1123
g2
S'everyday'
p1124
sg4
I16
sa(dp1125
g2
S'exactly'
p1126
sg4
I16
sa(dp1127
g2
S'face'
p1128
sg4
I16
sa(dp1129
g2
S'families'
p1130
sg4
I16
sa(dp1131
g2
S'flashpointintel'
p1132
sg4
I16
sa(dp1133
g2
S'found'
p1134
sg4
I16
sa(dp1135
g2
S'gets'
p1136
sg4
I16
sa(dp1137
g2
S'giving'
p1138
sg4
I16
sa(dp1139
g2
S'gone'
p1140
sg4
I16
sa(dp1141
g2
S'hanifa'
p1142
sg4
I16
sa(dp1143
g2
S'hes'
p1144
sg4
I16
sa(dp1145
g2
S'history'
p1146
sg4
I16
sa(dp1147
g2
S'iraqiwitness'
p1148
sg4
I16
sa(dp1149
g2
S'jadebolajo'
p1150
sg4
I16
sa(dp1151
g2
S'known'
p1152
sg4
I16
sa(dp1153
g2
S'kufr'
p1154
sg4
I16
sa(dp1155
g2
S'lie'
p1156
sg4
I16
sa(dp1157
g2
S'listen'
p1158
sg4
I16
sa(dp1159
g2
S'media'
p1160
sg4
I16
sa(dp1161
g2
S'military'
p1162
sg4
I16
sa(dp1163
g2
S'needs'
p1164
sg4
I16
sa(dp1165
g2
S'oppressed'
p1166
sg4
I16
sa(dp1167
g2
S'patelismael'
p1168
sg4
I16
sa(dp1169
g2
S'pathetic'
p1170
sg4
I16
sa(dp1171
g2
S'pig'
p1172
sg4
I16
sa(dp1173
g2
S'problem'
p1174
sg4
I16
sa(dp1175
g2
S'rather'
p1176
sg4
I16
sa(dp1177
g2
S'realease'
p1178
sg4
I16
sa(dp1179
g2
S'reality'
p1180
sg4
I16
sa(dp1181
g2
S'regime'
p1182
sg4
I16
sa(dp1183
g2
S'remain'
p1184
sg4
I16
sa(dp1185
g2
S'safe'
p1186
sg4
I16
sa(dp1187
g2
S'seeing'
p1188
sg4
I16
sa(dp1189
g2
S'seen'
p1190
sg4
I16
sa(dp1191
g2
S'sha'
p1192
sg4
I16
sa(dp1193
g2
S'shaytan'
p1194
sg4
I16
sa(dp1195
g2
S'situation'
p1196
sg4
I16
sa(dp1197
g2
S'soldiers'
p1198
sg4
I16
sa(dp1199
g2
S'sufficient'
p1200
sg4
I16
sa(dp1201
g2
S'super'
p1202
sg4
I16
sa(dp1203
g2
S'terror'
p1204
sg4
I16
sa(dp1205
g2
S'theyre'
p1206
sg4
I16
sa(dp1207
g2
S'totally'
p1208
sg4
I16
sa(dp1209
g2
S'uk'
p1210
sg4
I16
sa(dp1211
g2
S'ummsalama15'
p1212
sg4
I16
sa(dp1213
g2
S'ummulabeerah'
p1214
sg4
I16
sa(dp1215
g2
S'unless'
p1216
sg4
I16
sa(dp1217
g2
S'via'
p1218
sg4
I16
sa(dp1219
g2
S'whoever'
p1220
sg4
I16
sa(dp1221
g2
S'youre'
p1222
sg4
I16
sa(dp1223
g2
S'aleppo'
p1224
sg4
I14
sa(dp1225
g2
S'ali'
p1226
sg4
I14
sa(dp1227
g2
S'allaah'
p1228
sg4
I14
sa(dp1229
g2
S'allegiance'
p1230
sg4
I14
sa(dp1231
g2
S'alnusrah'
p1232
sg4
I14
sa(dp1233
g2
S'asked'
p1234
sg4
I14
sa(dp1235
g2
S'biithnilaah'
p1236
sg4
I14
sa(dp1237
g2
S'blessing'
p1238
sg4
I14
sa(dp1239
g2
S'break'
p1240
sg4
I14
sa(dp1241
g2
S'charleslister'
p1242
sg4
I14
sa(dp1243
g2
S'cool'
p1244
sg4
I14
sa(dp1245
g2
S'dawlahkhilafah'
p1246
sg4
I14
sa(dp1247
g2
S'destruction'
p1248
sg4
I14
sa(dp1249
g2
S'difference'
p1250
sg4
I14
sa(dp1251
g2
S'dowla'
p1252
sg4
I14
sa(dp1253
g2
S'dude'
p1254
sg4
I14
sa(dp1255
g2
S'emotional'
p1256
sg4
I14
sa(dp1257
g2
S'end'
p1258
sg4
I14
sa(dp1259
g2
S'eyes'
p1260
sg4
I14
sa(dp1261
g2
S'faith'
p1262
sg4
I14
sa(dp1263
g2
S'far'
p1264
sg4
I14
sa(dp1265
g2
S'feeling'
p1266
sg4
I14
sa(dp1267
g2
S'fighters'
p1268
sg4
I14
sa(dp1269
g2
S'firdaws'
p1270
sg4
I14
sa(dp1271
g2
S'following'
p1272
sg4
I14
sa(dp1273
g2
S'force'
p1274
sg4
I14
sa(dp1275
g2
S'funny'
p1276
sg4
I14
sa(dp1277
g2
S'garethruddy'
p1278
sg4
I14
sa(dp1279
g2
S'going'
p1280
sg4
I14
sa(dp1281
g2
S'guidance'
p1282
sg4
I14
sa(dp1283
g2
S'guy'
p1284
sg4
I14
sa(dp1285
g2
S'habib'
p1286
sg4
I14
sa(dp1287
g2
S'haliesheikh'
p1288
sg4
I14
sa(dp1289
g2
S'happen'
p1290
sg4
I14
sa(dp1291
g2
S'happening'
p1292
sg4
I14
sa(dp1293
g2
S'haram'
p1294
sg4
I14
sa(dp1295
g2
S'hear'
p1296
sg4
I14
sa(dp1297
g2
S'high'
p1298
sg4
I14
sa(dp1299
g2
S'highest'
p1300
sg4
I14
sa(dp1301
g2
S'ht'
p1302
sg4
I14
sa(dp1303
g2
S'jawlani'
p1304
sg4
I14
sa(dp1305
g2
S'journalist'
p1306
sg4
I14
sa(dp1307
g2
S'kashmir4ever'
p1308
sg4
I14
sa(dp1309
g2
S'knew'
p1310
sg4
I14
sa(dp1311
g2
S'lies'
p1312
sg4
I14
sa(dp1313
g2
S'livingforallah'
p1314
sg4
I14
sa(dp1315
g2
S'loss'
p1316
sg4
I14
sa(dp1317
g2
S'm'
p1318
sg4
I14
sa(dp1319
g2
S'maliwitness'
p1320
sg4
I14
sa(dp1321
g2
S'meet'
p1322
sg4
I14
sa(dp1323
g2
S'met'
p1324
sg4
I14
sa(dp1325
g2
S'mr'
p1326
sg4
I14
sa(dp1327
g2
S'mujahidin'
p1328
sg4
I14
sa(dp1329
g2
S'mum'
p1330
sg4
I14
sa(dp1331
g2
S'nah'
p1332
sg4
I14
sa(dp1333
g2
S'nice'
p1334
sg4
I14
sa(dp1335
g2
S'often'
p1336
sg4
I14
sa(dp1337
g2
S'others'
p1338
sg4
I14
sa(dp1339
g2
S'punishment'
p1340
sg4
I14
sa(dp1341
g2
S'retweet'
p1342
sg4
I14
sa(dp1343
g2
S'sacrifice'
p1344
sg4
I14
sa(dp1345
g2
S'saeedalhalabi'
p1346
sg4
I14
sa(dp1347
g2
S'silent'
p1348
sg4
I14
sa(dp1349
g2
S'slaves'
p1350
sg4
I14
sa(dp1351
g2
S'soldier'
p1352
sg4
I14
sa(dp1353
g2
S'spill'
p1354
sg4
I14
sa(dp1355
g2
S'spoke'
p1356
sg4
I14
sa(dp1357
g2
S'spread'
p1358
sg4
I14
sa(dp1359
g2
S'stance'
p1360
sg4
I14
sa(dp1361
g2
S'start'
p1362
sg4
I14
sa(dp1363
g2
S'stay'
p1364
sg4
I14
sa(dp1365
g2
S'strikes'
p1366
sg4
I14
sa(dp1367
g2
S'surah'
p1368
sg4
I14
sa(dp1369
g2
S'takfeer'
p1370
sg4
I14
sa(dp1371
g2
S'takfir'
p1372
sg4
I14
sa(dp1373
g2
S'talks'
p1374
sg4
I14
sa(dp1375
g2
S'tawheed'
p1376
sg4
I14
sa(dp1377
g2
S'test'
p1378
sg4
I14
sa(dp1379
g2
S'thanks'
p1380
sg4
I14
sa(dp1381
g2
S'tweets'
p1382
sg4
I14
sa(dp1383
g2
S'understanding'
p1384
sg4
I14
sa(dp1385
g2
S'usama'
p1386
sg4
I14
sa(dp1387
g2
S'wallahi'
p1388
sg4
I14
sa(dp1389
g2
S'wanted'
p1390
sg4
I14
sa(dp1391
g2
S'wherever'
p1392
sg4
I14
sa(dp1393
g2
S'whos'
p1394
sg4
I14
sa(dp1395
g2
S'work'
p1396
sg4
I14
sa(dp1397
g2
S'wout'
p1398
sg4
I14
sa(dp1399
g2
S'able'
p1400
sg4
I12
sa(dp1401
g2
S'abouhourayra2'
p1402
sg4
I12
sa(dp1403
g2
S'abuaishah'
p1404
sg4
I12
sa(dp1405
g2
S'abuaminah'
p1406
sg4
I12
sa(dp1407
g2
S'abuizzadeen1'
p1408
sg4
I12
sa(dp1409
g2
S'abukhalid94'
p1410
sg4
I12
sa(dp1411
g2
S'alqaidah'
p1412
sg4
I12
sa(dp1413
g2
S'answer'
p1414
sg4
I12
sa(dp1415
g2
S'arab'
p1416
sg4
I12
sa(dp1417
g2
S'attacks'
p1418
sg4
I12
sa(dp1419
g2
S'aziz'
p1420
sg4
I12
sa(dp1421
g2
S'body'
p1422
sg4
I12
sa(dp1423
g2
S'brought'
p1424
sg4
I12
sa(dp1425
g2
S'bullet'
p1426
sg4
I12
sa(dp1427
g2
S'care'
p1428
sg4
I12
sa(dp1429
g2
S'chechisback'
p1430
sg4
I12
sa(dp1431
g2
S'claimed'
p1432
sg4
I12
sa(dp1433
g2
S'clearly'
p1434
sg4
I12
sa(dp1435
g2
S'coalition'
p1436
sg4
I12
sa(dp1437
g2
S'crime'
p1438
sg4
I12
sa(dp1439
g2
S'criminals'
p1440
sg4
I12
sa(dp1441
g2
S'cute'
p1442
sg4
I12
sa(dp1443
g2
S'dangerous'
p1444
sg4
I12
sa(dp1445
g2
S'defend'
p1446
sg4
I12
sa(dp1447
g2
S'deranged'
p1448
sg4
I12
sa(dp1449
g2
S'destroyed'
p1450
sg4
I12
sa(dp1451
g2
S'died'
p1452
sg4
I12
sa(dp1453
g2
S'duaas'
p1454
sg4
I12
sa(dp1455
g2
S'dumb'
p1456
sg4
I12
sa(dp1457
g2
S'em'
p1458
sg4
I12
sa(dp1459
g2
S'enough'
p1460
sg4
I12
sa(dp1461
g2
S'exchange'
p1462
sg4
I12
sa(dp1463
g2
S'eye'
p1464
sg4
I12
sa(dp1465
g2
S'fact'
p1466
sg4
I12
sa(dp1467
g2
S'false'
p1468
sg4
I12
sa(dp1469
g2
S'fast'
p1470
sg4
I12
sa(dp1471
g2
S'feel'
p1472
sg4
I12
sa(dp1473
g2
S'fighter'
p1474
sg4
I12
sa(dp1475
g2
S'freemuslimprisoners'
p1476
sg4
I12
sa(dp1477
g2
S'given'
p1478
sg4
I12
sa(dp1479
g2
S'granted'
p1480
sg4
I12
sa(dp1481
g2
S'henning'
p1482
sg4
I12
sa(dp1483
g2
S'hijrah'
p1484
sg4
I12
sa(dp1485
g2
S'hold'
p1486
sg4
I12
sa(dp1487
g2
S'homs'
p1488
sg4
I12
sa(dp1489
g2
S'httptc'
p1490
sg4
I12
sa(dp1491
g2
S'hurayra'
p1492
sg4
I12
sa(dp1493
g2
S'hurt'
p1494
sg4
I12
sa(dp1495
g2
S'idiot'
p1496
sg4
I12
sa(dp1497
g2
S'image'
p1498
sg4
I12
sa(dp1499
g2
S'imprisoned'
p1500
sg4
I12
sa(dp1501
g2
S'increase'
p1502
sg4
I12
sa(dp1503
g2
S'indian'
p1504
sg4
I12
sa(dp1505
g2
S'inna'
p1506
sg4
I12
sa(dp1507
g2
S'jamilahanan'
p1508
sg4
I12
sa(dp1509
g2
S'jeremyscahill'
p1510
sg4
I12
sa(dp1511
g2
S'jews'
p1512
sg4
I12
sa(dp1513
g2
S'jihadnews2'
p1514
sg4
I12
sa(dp1515
g2
S'joining'
p1516
sg4
I12
sa(dp1517
g2
S'judgment'
p1518
sg4
I12
sa(dp1519
g2
S'kafir'
p1520
sg4
I12
sa(dp1521
g2
S'khalid'
p1522
sg4
I12
sa(dp1523
g2
S'khilafahal'
p1524
sg4
I12
sa(dp1525
g2
S'knowledge'
p1526
sg4
I12
sa(dp1527
g2
S'land'
p1528
sg4
I12
sa(dp1529
g2
S'latest'
p1530
sg4
I12
sa(dp1531
g2
S'lead'
p1532
sg4
I12
sa(dp1533
g2
S'lets'
p1534
sg4
I12
sa(dp1535
g2
S'lightseries'
p1536
sg4
I12
sa(dp1537
g2
S'looks'
p1538
sg4
I12
sa(dp1539
g2
S'lool'
p1540
sg4
I12
sa(dp1541
g2
S'lower'
p1542
sg4
I12
sa(dp1543
g2
S'member'
p1544
sg4
I12
sa(dp1545
g2
S'mention'
p1546
sg4
I12
sa(dp1547
g2
S'mentioned'
p1548
sg4
I12
sa(dp1549
g2
S'missing'
p1550
sg4
I12
sa(dp1551
g2
S'money'
p1552
sg4
I12
sa(dp1553
g2
S'musacerantonio'
p1554
sg4
I12
sa(dp1555
g2
S'night'
p1556
sg4
I12
sa(dp1557
g2
S'observermiddle'
p1558
sg4
I12
sa(dp1559
g2
S'official'
p1560
sg4
I12
sa(dp1561
g2
S'open'
p1562
sg4
I12
sa(dp1563
g2
S'operation'
p1564
sg4
I12
sa(dp1565
g2
S'order'
p1566
sg4
I12
sa(dp1567
g2
S'page'
p1568
sg4
I12
sa(dp1569
g2
S'passed'
p1570
sg4
I12
sa(dp1571
g2
S'pleasure'
p1572
sg4
I12
sa(dp1573
g2
S'power'
p1574
sg4
I12
sa(dp1575
g2
S'previous'
p1576
sg4
I12
sa(dp1577
g2
S'question'
p1578
sg4
I12
sa(dp1579
g2
S'rahimahullah'
p1580
sg4
I12
sa(dp1581
g2
S'reminders'
p1582
sg4
I12
sa(dp1583
g2
S'sdoomie'
p1584
sg4
I12
sa(dp1585
g2
S'sent'
p1586
sg4
I12
sa(dp1587
g2
S'seriously'
p1588
sg4
I12
sa(dp1589
g2
S'shame'
p1590
sg4
I12
sa(dp1591
g2
S'short'
p1592
sg4
I12
sa(dp1593
g2
S'showing'
p1594
sg4
I12
sa(dp1595
g2
S'simplyikran'
p1596
sg4
I12
sa(dp1597
g2
S'sins'
p1598
sg4
I12
sa(dp1599
g2
S'slander'
p1600
sg4
I12
sa(dp1601
g2
S'sometimes'
p1602
sg4
I12
sa(dp1603
g2
S'sound'
p1604
sg4
I12
sa(dp1605
g2
S'sources'
p1606
sg4
I12
sa(dp1607
g2
S'speaking'
p1608
sg4
I12
sa(dp1609
g2
S'strike'
p1610
sg4
I12
sa(dp1611
g2
S'stupid'
p1612
sg4
I12
sa(dp1613
g2
S'suprised'
p1614
sg4
I12
sa(dp1615
g2
S'surely'
p1616
sg4
I12
sa(dp1617
g2
S'tomorrow'
p1618
sg4
I12
sa(dp1619
g2
S'tongue'
p1620
sg4
I12
sa(dp1621
g2
S'tweet'
p1622
sg4
I12
sa(dp1623
g2
S'use'
p1624
sg4
I12
sa(dp1625
g2
S'v'
p1626
sg4
I12
sa(dp1627
g2
S'w'
p1628
sg4
I12
sa(dp1629
g2
S'whatever'
p1630
sg4
I12
sa(dp1631
g2
S'witness'
p1632
sg4
I12
sa(dp1633
g2
S'yes'
p1634
sg4
I12
sa(dp1635
g2
S'2horses4cups'
p1636
sg4
I10
sa(dp1637
g2
S'aalaseer'
p1638
sg4
I10
sa(dp1639
g2
S'abboud'
p1640
sg4
I10
sa(dp1641
g2
S'abubaraafb'
p1642
sg4
I10
sa(dp1643
g2
S'abuizzadeen2'
p1644
sg4
I10
sa(dp1645
g2
S'according'
p1646
sg4
I10
sa(dp1647
g2
S'adnani'
p1648
sg4
I10
sa(dp1649
g2
S'afraid'
p1650
sg4
I10
sa(dp1651
g2
S'age'
p1652
sg4
I10
sa(dp1653
g2
S'ago'
p1654
sg4
I10
sa(dp1655
g2
S'air'
p1656
sg4
I10
sa(dp1657
g2
S'alala'
p1658
sg4
I10
sa(dp1659
g2
S'alnusras'
p1660
sg4
I10
sa(dp1661
g2
S'alqahtani'
p1662
sg4
I10
sa(dp1663
g2
S'already'
p1664
sg4
I10
sa(dp1665
g2
S'alshaam'
p1666
sg4
I10
sa(dp1667
g2
S'anas'
p1668
sg4
I10
sa(dp1669
g2
S'ansar'
p1670
sg4
I10
sa(dp1671
g2
S'aqis'
p1672
sg4
I10
sa(dp1673
g2
S'arrests'
p1674
sg4
I10
sa(dp1675
g2
S'ash'
p1676
sg4
I10
sa(dp1677
g2
S'attain'
p1678
sg4
I10
sa(dp1679
g2
S'auspol'
p1680
sg4
I10
sa(dp1681
g2
S'barking'
p1682
sg4
I10
sa(dp1683
g2
S'beautsinners'
p1684
sg4
I10
sa(dp1685
g2
S'becomes'
p1686
sg4
I10
sa(dp1687
g2
S'behind'
p1688
sg4
I10
sa(dp1689
g2
S'believer'
p1690
sg4
I10
sa(dp1691
g2
S'benefit'
p1692
sg4
I10
sa(dp1693
g2
S'biithnilah'
p1694
sg4
I10
sa(dp1695
g2
S'blessings'
p1696
sg4
I10
sa(dp1697
g2
S'brave'
p1698
sg4
I10
sa(dp1699
g2
S'brings'
p1700
sg4
I10
sa(dp1701
g2
S'bullets'
p1702
sg4
I10
sa(dp1703
g2
S'camp'
p1704
sg4
I10
sa(dp1705
g2
S'character'
p1706
sg4
I10
sa(dp1707
g2
S'charges'
p1708
sg4
I10
sa(dp1709
g2
S'claims'
p1710
sg4
I10
sa(dp1711
g2
S'closer'
p1712
sg4
I10
sa(dp1713
g2
S'comfort'
p1714
sg4
I10
sa(dp1715
g2
S'continue'
p1716
sg4
I10
sa(dp1717
g2
S'cops'
p1718
sg4
I10
sa(dp1719
g2
S'correction'
p1720
sg4
I10
sa(dp1721
g2
S'courts'
p1722
sg4
I10
sa(dp1723
g2
S'crusader'
p1724
sg4
I10
sa(dp1725
g2
S'cry'
p1726
sg4
I10
sa(dp1727
g2
S'crying'
p1728
sg4
I10
sa(dp1729
g2
S'culture'
p1730
sg4
I10
sa(dp1731
g2
S'declared'
p1732
sg4
I10
sa(dp1733
g2
S'drones'
p1734
sg4
I10
sa(dp1735
g2
S'ebola'
p1736
sg4
I10
sa(dp1737
g2
S'enemy'
p1738
sg4
I10
sa(dp1739
g2
S'esteemed'
p1740
sg4
I10
sa(dp1741
g2
S'eternal'
p1742
sg4
I10
sa(dp1743
g2
S'example'
p1744
sg4
I10
sa(dp1745
g2
S'exposed'
p1746
sg4
I10
sa(dp1747
g2
S'fais99l'
p1748
sg4
I10
sa(dp1749
g2
S'faisal'
p1750
sg4
I10
sa(dp1751
g2
S'fasting'
p1752
sg4
I10
sa(dp1753
g2
S'feek'
p1754
sg4
I10
sa(dp1755
g2
S'forgiveness'
p1756
sg4
I10
sa(dp1757
g2
S'fought'
p1758
sg4
I10
sa(dp1759
g2
S'fulan2weet'
p1760
sg4
I10
sa(dp1761
g2
S'gain'
p1762
sg4
I10
sa(dp1763
g2
S'girl'
p1764
sg4
I10
sa(dp1765
g2
S'gives'
p1766
sg4
I10
sa(dp1767
g2
S'goes'
p1768
sg4
I10
sa(dp1769
g2
S'greatest'
p1770
sg4
I10
sa(dp1771
g2
S'hamas'
p1772
sg4
I10
sa(dp1773
g2
S'hand'
p1774
sg4
I10
sa(dp1775
g2
S'hands'
p1776
sg4
I10
sa(dp1777
g2
S'haters'
p1778
sg4
I10
sa(dp1779
g2
S'hearted'
p1780
sg4
I10
sa(dp1781
g2
S'hi'
p1782
sg4
I10
sa(dp1783
g2
S'hit'
p1784
sg4
I10
sa(dp1785
g2
S'husbands'
p1786
sg4
I10
sa(dp1787
g2
S'idlib'
p1788
sg4
I10
sa(dp1789
g2
S'images'
p1790
sg4
I10
sa(dp1791
g2
S'insha'
p1792
sg4
I10
sa(dp1793
g2
S'intentions'
p1794
sg4
I10
sa(dp1795
g2
S'interview'
p1796
sg4
I10
sa(dp1797
g2
S'iyaak'
p1798
sg4
I10
sa(dp1799
g2
S'jamal'
p1800
sg4
I10
sa(dp1801
g2
S'kashmir'
p1802
sg4
I10
sa(dp1803
g2
S'kept'
p1804
sg4
I10
sa(dp1805
g2
S'khilafah'
p1806
sg4
I10
sa(dp1807
g2
S'kid'
p1808
sg4
I10
sa(dp1809
g2
S'label'
p1810
sg4
I10
sa(dp1811
g2
S'laugh'
p1812
sg4
I10
sa(dp1813
g2
S'law'
p1814
sg4
I10
sa(dp1815
g2
S'less'
p1816
sg4
I10
sa(dp1817
g2
S'light'
p1818
sg4
I10
sa(dp1819
g2
S'lion'
p1820
sg4
I10
sa(dp1821
g2
S'lions'
p1822
sg4
I10
sa(dp1823
g2
S'loool'
p1824
sg4
I10
sa(dp1825
g2
S'loved'
p1826
sg4
I10
sa(dp1827
g2
S'low'
p1828
sg4
I10
sa(dp1829
g2
S'ma'
p1830
sg4
I10
sa(dp1831
g2
S'mad'
p1832
sg4
I10
sa(dp1833
g2
S'martyr'
p1834
sg4
I10
sa(dp1835
g2
S'mate'
p1836
sg4
I10
sa(dp1837
g2
S'morning'
p1838
sg4
I10
sa(dp1839
g2
S'muhajir1'
p1840
sg4
I10
sa(dp1841
g2
S'munafiqeen'
p1842
sg4
I10
sa(dp1843
g2
S'names'
p1844
sg4
I10
sa(dp1845
g2
S'nationalism'
p1846
sg4
I10
sa(dp1847
g2
S'nifaq'
p1848
sg4
I10
sa(dp1849
g2
S'paladinofjihad'
p1850
sg4
I10
sa(dp1851
g2
S'paradise'
p1852
sg4
I10
sa(dp1853
g2
S'peace'
p1854
sg4
I10
sa(dp1855
g2
S'perspective'
p1856
sg4
I10
sa(dp1857
g2
S'plz'
p1858
sg4
I10
sa(dp1859
g2
S'position'
p1860
sg4
I10
sa(dp1861
g2
S'prison'
p1862
sg4
I10
sa(dp1863
g2
S'putting'
p1864
sg4
I10
sa(dp1865
g2
S'qatadah'
p1866
sg4
I10
sa(dp1867
g2
S'raids'
p1868
sg4
I10
sa(dp1869
g2
S'rank'
p1870
sg4
I10
sa(dp1871
g2
S'regret'
p1872
sg4
I10
sa(dp1873
g2
S'relief'
p1874
sg4
I10
sa(dp1875
g2
S'religion'
p1876
sg4
I10
sa(dp1877
g2
S'remind'
p1878
sg4
I10
sa(dp1879
g2
S'rest'
p1880
sg4
I10
sa(dp1881
g2
S'reunite'
p1882
sg4
I10
sa(dp1883
g2
S'run'
p1884
sg4
I10
sa(dp1885
g2
S's7bhijratain3'
p1886
sg4
I10
sa(dp1887
g2
S'sarafirth'
p1888
sg4
I10
sa(dp1889
g2
S'scholars'
p1890
sg4
I10
sa(dp1891
g2
S'school'
p1892
sg4
I10
sa(dp1893
g2
S'seeking'
p1894
sg4
I10
sa(dp1895
g2
S'sees'
p1896
sg4
I10
sa(dp1897
g2
S'seifulmaslul123'
p1898
sg4
I10
sa(dp1899
g2
S'shahada'
p1900
sg4
I10
sa(dp1901
g2
S'shariah'
p1902
sg4
I10
sa(dp1903
g2
S'shaytaan'
p1904
sg4
I10
sa(dp1905
g2
S'shirazmaher'
p1906
sg4
I10
sa(dp1907
g2
S'shows'
p1908
sg4
I10
sa(dp1909
g2
S'side'
p1910
sg4
I10
sa(dp1911
g2
S'similiar'
p1912
sg4
I10
sa(dp1913
g2
S'sincerity'
p1914
sg4
I10
sa(dp1915
g2
S'small'
p1916
sg4
I10
sa(dp1917
g2
S'smh'
p1918
sg4
I10
sa(dp1919
g2
S'somali'
p1920
sg4
I10
sa(dp1921
g2
S'sounds'
p1922
sg4
I10
sa(dp1923
g2
S'suffering'
p1924
sg4
I10
sa(dp1925
g2
S'suicide'
p1926
sg4
I10
sa(dp1927
g2
S'suspended'
p1928
sg4
I10
sa(dp1929
g2
S'sweat'
p1930
sg4
I10
sa(dp1931
g2
S'taken'
p1932
sg4
I10
sa(dp1933
g2
S'taking'
p1934
sg4
I10
sa(dp1935
g2
S'talking'
p1936
sg4
I10
sa(dp1937
g2
S'taqwa'
p1938
sg4
I10
sa(dp1939
g2
S'teaching'
p1940
sg4
I10
sa(dp1941
g2
S'ten'
p1942
sg4
I10
sa(dp1943
g2
S'th'
p1944
sg4
I10
sa(dp1945
g2
S'theyve'
p1946
sg4
I10
sa(dp1947
g2
S'ticket'
p1948
sg4
I10
sa(dp1949
g2
S'together'
p1950
sg4
I10
sa(dp1951
g2
S'top'
p1952
sg4
I10
sa(dp1953
g2
S'tradesrates'
p1954
sg4
I10
sa(dp1955
g2
S'training'
p1956
sg4
I10
sa(dp1957
g2
S'tried'
p1958
sg4
I10
sa(dp1959
g2
S'trying'
p1960
sg4
I10
sa(dp1961
g2
S'turkey'
p1962
sg4
I10
sa(dp1963
g2
S'turkish'
p1964
sg4
I10
sa(dp1965
g2
S'ulama'
p1966
sg4
I10
sa(dp1967
g2
S'ummemotionless'
p1968
sg4
I10
sa(dp1969
g2
S'unity'
p1970
sg4
I10
sa(dp1971
g2
S'usa'
p1972
sg4
I10
sa(dp1973
g2
S'wait'
p1974
sg4
I10
sa(dp1975
g2
S'wannabe'
p1976
sg4
I10
sa(dp1977
g2
S'wasnt'
p1978
sg4
I10
sa(dp1979
g2
S'weasel'
p1980
sg4
I10
sa(dp1981
g2
S'welcome'
p1982
sg4
I10
sa(dp1983
g2
S'weve'
p1984
sg4
I10
sa(dp1985
g2
S'wives'
p1986
sg4
I10
sa(dp1987
g2
S'wouldnt'
p1988
sg4
I10
sa(dp1989
g2
S'yemeni'
p1990
sg4
I10
sa(dp1991
g2
S'young'
p1992
sg4
I10
sa(dp1993
g2
S'youtube'
p1994
sg4
I10
sa(dp1995
g2
S'abbas'
p1996
sg4
I8
sa(dp1997
g2
S'abdul'
p1998
sg4
I8
sa(dp1999
g2
S'abimaysarah'
p2000
sg4
I8
sa(dp2001
g2
S'aboud'
p2002
sg4
I8
sa(dp2003
g2
S'abuadamalamriki'
p2004
sg4
I8
sa(dp2005
g2
S'abuimraan'
p2006
sg4
I8
sa(dp2007
g2
S'abutalha001'
p2008
sg4
I8
sa(dp2009
g2
S'abutawba'
p2010
sg4
I8
sa(dp2011
g2
S'abuubaydah333'
p2012
sg4
I8
sa(dp2013
g2
S'abuyehyaalshami'
p2014
sg4
I8
sa(dp2015
g2
S'accuse'
p2016
sg4
I8
sa(dp2017
g2
S'actions'
p2018
sg4
I8
sa(dp2019
g2
S'ahl'
p2020
sg4
I8
sa(dp2021
g2
S'ahmed'
p2022
sg4
I8
sa(dp2023
g2
S'airstrikes'
p2024
sg4
I8
sa(dp2025
g2
S'ajagaza'
p2026
sg4
I8
sa(dp2027
g2
S'alalaa'
p2028
sg4
I8
sa(dp2029
g2
S'alam'
p2030
sg4
I8
sa(dp2031
g2
S'alawlaki'
p2032
sg4
I8
sa(dp2033
g2
S'alhabib'
p2034
sg4
I8
sa(dp2035
g2
S'allahswt'
p2036
sg4
I8
sa(dp2037
g2
S'alshabab'
p2038
sg4
I8
sa(dp2039
g2
S'alzawahiri'
p2040
sg4
I8
sa(dp2041
g2
S'america'
p2042
sg4
I8
sa(dp2043
g2
S'amiralmujahida'
p2044
sg4
I8
sa(dp2045
g2
S'apostates'
p2046
sg4
I8
sa(dp2047
g2
S'appreciate'
p2048
sg4
I8
sa(dp2049
g2
S'arafah'
p2050
sg4
I8
sa(dp2051
g2
S'archicivilians'
p2052
sg4
I8
sa(dp2053
g2
S'areas'
p2054
sg4
I8
sa(dp2055
g2
S'arent'
p2056
sg4
I8
sa(dp2057
g2
S'arms'
p2058
sg4
I8
sa(dp2059
g2
S'ashshawqi'
p2060
sg4
I8
sa(dp2061
g2
S'assault'
p2062
sg4
I8
sa(dp2063
g2
S'assist'
p2064
sg4
I8
sa(dp2065
g2
S'authentic'
p2066
sg4
I8
sa(dp2067
g2
S'avoid'
p2068
sg4
I8
sa(dp2069
g2
S'azzam'
p2070
sg4
I8
sa(dp2071
g2
S'badly'
p2072
sg4
I8
sa(dp2073
g2
S'bakr'
p2074
sg4
I8
sa(dp2075
g2
S'bakwas'
p2076
sg4
I8
sa(dp2077
g2
S'barakah'
p2078
sg4
I8
sa(dp2079
g2
S'battle'
p2080
sg4
I8
sa(dp2081
g2
S'bcos'
p2082
sg4
I8
sa(dp2083
g2
S'beardotweets'
p2084
sg4
I8
sa(dp2085
g2
S'behave'
p2086
sg4
I8
sa(dp2087
g2
S'behaving'
p2088
sg4
I8
sa(dp2089
g2
S'beheading'
p2090
sg4
I8
sa(dp2091
g2
S'belief'
p2092
sg4
I8
sa(dp2093
g2
S'beside'
p2094
sg4
I8
sa(dp2095
g2
S'bilalkareem'
p2096
sg4
I8
sa(dp2097
g2
S'bits'
p2098
sg4
I8
sa(dp2099
g2
S'border'
p2100
sg4
I8
sa(dp2101
g2
S'brigades'
p2102
sg4
I8
sa(dp2103
g2
S'bw'
p2104
sg4
I8
sa(dp2105
g2
S'c'
p2106
sg4
I8
sa(dp2107
g2
S'calling'
p2108
sg4
I8
sa(dp2109
g2
S'camps'
p2110
sg4
I8
sa(dp2111
g2
S'captured'
p2112
sg4
I8
sa(dp2113
g2
S'cases'
p2114
sg4
I8
sa(dp2115
g2
S'ceasefire'
p2116
sg4
I8
sa(dp2117
g2
S'check'
p2118
sg4
I8
sa(dp2119
g2
S'claim'
p2120
sg4
I8
sa(dp2121
g2
S'coloneljafar'
p2122
sg4
I8
sa(dp2123
g2
S'committed'
p2124
sg4
I8
sa(dp2125
g2
S'companions'
p2126
sg4
I8
sa(dp2127
g2
S'control'
p2128
sg4
I8
sa(dp2129
g2
S'correct'
p2130
sg4
I8
sa(dp2131
g2
S'covenant'
p2132
sg4
I8
sa(dp2133
g2
S'coward'
p2134
sg4
I8
sa(dp2135
g2
S'crazy'
p2136
sg4
I8
sa(dp2137
g2
S'crimes'
p2138
sg4
I8
sa(dp2139
g2
S'crusade'
p2140
sg4
I8
sa(dp2141
g2
S'd'
p2142
sg4
I8
sa(dp2143
g2
S'da'
p2144
sg4
I8
sa(dp2145
g2
S'dawah'
p2146
sg4
I8
sa(dp2147
g2
S'dawlah'
p2148
sg4
I8
sa(dp2149
g2
S'deal'
p2150
sg4
I8
sa(dp2151
g2
S'deed'
p2152
sg4
I8
sa(dp2153
g2
S'deep'
p2154
sg4
I8
sa(dp2155
g2
S'defeat'
p2156
sg4
I8
sa(dp2157
g2
S'defending'
p2158
sg4
I8
sa(dp2159
g2
S'despite'
p2160
sg4
I8
sa(dp2161
g2
S'differences'
p2162
sg4
I8
sa(dp2163
g2
S'direct'
p2164
sg4
I8
sa(dp2165
g2
S'disease'
p2166
sg4
I8
sa(dp2167
g2
S'dogs'
p2168
sg4
I8
sa(dp2169
g2
S'donate'
p2170
sg4
I8
sa(dp2171
g2
S'double'
p2172
sg4
I8
sa(dp2173
g2
S'dropped'
p2174
sg4
I8
sa(dp2175
g2
S'du3aa'
p2176
sg4
I8
sa(dp2177
g2
S'duty'
p2178
sg4
I8
sa(dp2179
g2
S'earlier'
p2180
sg4
I8
sa(dp2181
g2
S'earth'
p2182
sg4
I8
sa(dp2183
g2
S'efforts'
p2184
sg4
I8
sa(dp2185
g2
S'everywhere'
p2186
sg4
I8
sa(dp2187
g2
S'facebook'
p2188
sg4
I8
sa(dp2189
g2
S'fake'
p2190
sg4
I8
sa(dp2191
g2
S'fanboys'
p2192
sg4
I8
sa(dp2193
g2
S'farah'
p2194
sg4
I8
sa(dp2195
g2
S'feared'
p2196
sg4
I8
sa(dp2197
g2
S'feeki'
p2198
sg4
I8
sa(dp2199
g2
S'filthy'
p2200
sg4
I8
sa(dp2201
g2
S'fire'
p2202
sg4
I8
sa(dp2203
g2
S'fitnah'
p2204
sg4
I8
sa(dp2205
g2
S'foley'
p2206
sg4
I8
sa(dp2207
g2
S'followers'
p2208
sg4
I8
sa(dp2209
g2
S'food'
p2210
sg4
I8
sa(dp2211
g2
S'forever'
p2212
sg4
I8
sa(dp2213
g2
S'general'
p2214
sg4
I8
sa(dp2215
g2
S'goodness'
p2216
sg4
I8
sa(dp2217
g2
S'govt'
p2218
sg4
I8
sa(dp2219
g2
S'guess'
p2220
sg4
I8
sa(dp2221
g2
S'halal'
p2222
sg4
I8
sa(dp2223
g2
S'hama'
p2224
sg4
I8
sa(dp2225
g2
S'happend'
p2226
sg4
I8
sa(dp2227
g2
S'harm'
p2228
sg4
I8
sa(dp2229
g2
S'hasnt'
p2230
sg4
I8
sa(dp2231
g2
S'hatred'
p2232
sg4
I8
sa(dp2233
g2
S'hawla'
p2234
sg4
I8
sa(dp2235
g2
S'heavily'
p2236
sg4
I8
sa(dp2237
g2
S'hellfire'
p2238
sg4
I8
sa(dp2239
g2
S'helps'
p2240
sg4
I8
sa(dp2241
g2
S'hide'
p2242
sg4
I8
sa(dp2243
g2
S'hijab'
p2244
sg4
I8
sa(dp2245
g2
S'hijra'
p2246
sg4
I8
sa(dp2247
g2
S'hikjhi'
p2248
sg4
I8
sa(dp2249
g2
S'holding'
p2250
sg4
I8
sa(dp2251
g2
S'httpst'
p2252
sg4
I8
sa(dp2253
g2
S'huge'
p2254
sg4
I8
sa(dp2255
g2
S'humdulillah'
p2256
sg4
I8
sa(dp2257
g2
S'hunt'
p2258
sg4
I8
sa(dp2259
g2
S'hypocrisy'
p2260
sg4
I8
sa(dp2261
g2
S'ibn0mar'
p2262
sg4
I8
sa(dp2263
g2
S'id'
p2264
sg4
I8
sa(dp2265
g2
S'idiots'
p2266
sg4
I8
sa(dp2267
g2
S'ifalasteen'
p2268
sg4
I8
sa(dp2269
g2
S'ignorance'
p2270
sg4
I8
sa(dp2271
g2
S'ilah'
p2272
sg4
I8
sa(dp2273
g2
S'imaan'
p2274
sg4
I8
sa(dp2275
g2
S'impossible'
p2276
sg4
I8
sa(dp2277
g2
S'initiative'
p2278
sg4
I8
sa(dp2279
g2
S'insecure'
p2280
sg4
I8
sa(dp2281
g2
S'inshaallah'
p2282
sg4
I8
sa(dp2283
g2
S'israeli'
p2284
sg4
I8
sa(dp2285
g2
S'issue'
p2286
sg4
I8
sa(dp2287
g2
S'issues'
p2288
sg4
I8
sa(dp2289
g2
S'itsnadias'
p2290
sg4
I8
sa(dp2291
g2
S'jihadfard'
p2292
sg4
I8
sa(dp2293
g2
S'jihadi'
p2294
sg4
I8
sa(dp2295
g2
S'jihadists'
p2296
sg4
I8
sa(dp2297
g2
S'joined'
p2298
sg4
I8
sa(dp2299
g2
S'journey'
p2300
sg4
I8
sa(dp2301
g2
S'jubaabu'
p2302
sg4
I8
sa(dp2303
g2
S'judge'
p2304
sg4
I8
sa(dp2305
g2
S'junuds'
p2306
sg4
I8
sa(dp2307
g2
S'jzk'
p2308
sg4
I8
sa(dp2309
g2
S'khilafa'
p2310
sg4
I8
sa(dp2311
g2
S'killers'
p2312
sg4
I8
sa(dp2313
g2
S'knowing'
p2314
sg4
I8
sa(dp2315
g2
S'kurdishbaby1976'
p2316
sg4
I8
sa(dp2317
g2
S'la'
p2318
sg4
I8
sa(dp2319
g2
S'late'
p2320
sg4
I8
sa(dp2321
g2
S'leaves'
p2322
sg4
I8
sa(dp2323
g2
S'leaving'
p2324
sg4
I8
sa(dp2325
g2
S'lesson'
p2326
sg4
I8
sa(dp2327
g2
S'lifeofmujahid1'
p2328
sg4
I8
sa(dp2329
g2
S'line'
p2330
sg4
I8
sa(dp2331
g2
S'list'
p2332
sg4
I8
sa(dp2333
g2
S'listening'
p2334
sg4
I8
sa(dp2335
g2
S'lives'
p2336
sg4
I8
sa(dp2337
g2
S'locked'
p2338
sg4
I8
sa(dp2339
g2
S'lonely'
p2340
sg4
I8
sa(dp2341
g2
S'lot'
p2342
sg4
I8
sa(dp2343
g2
S'loud'
p2344
sg4
I8
sa(dp2345
g2
S'lying'
p2346
sg4
I8
sa(dp2347
g2
S'maqdisi'
p2348
sg4
I8
sa(dp2349
g2
S'mariya'
p2350
sg4
I8
sa(dp2351
g2
S'mashaa'
p2352
sg4
I8
sa(dp2353
g2
S'mawlaki'
p2354
sg4
I8
sa(dp2355
g2
S'medicine'
p2356
sg4
I8
sa(dp2357
g2
S'miss'
p2358
sg4
I8
sa(dp2359
g2
S'monkey'
p2360
sg4
I8
sa(dp2361
g2
S'mosque'
p2362
sg4
I8
sa(dp2363
g2
S'mums'
p2364
sg4
I8
sa(dp2365
g2
S'muqatil'
p2366
sg4
I8
sa(dp2367
g2
S'mwnnews'
p2368
sg4
I8
sa(dp2369
g2
S'nasiha'
p2370
sg4
I8
sa(dp2371
g2
S'necks'
p2372
sg4
I8
sa(dp2373
g2
S'noble'
p2374
sg4
I8
sa(dp2375
g2
S'nusra4nusra'
p2376
sg4
I8
sa(dp2377
g2
S'outcome'
p2378
sg4
I8
sa(dp2379
g2
S'outside'
p2380
sg4
I8
sa(dp2381
g2
S'past'
p2382
sg4
I8
sa(dp2383
g2
S'perfect'
p2384
sg4
I8
sa(dp2385
g2
S'picture'
p2386
sg4
I8
sa(dp2387
g2
S'placed'
p2388
sg4
I8
sa(dp2389
g2
S'play'
p2390
sg4
I8
sa(dp2391
g2
S'playing'
p2392
sg4
I8
sa(dp2393
g2
S'plots'
p2394
sg4
I8
sa(dp2395
g2
S'porky'
p2396
sg4
I8
sa(dp2397
g2
S'post'
p2398
sg4
I8
sa(dp2399
g2
S'praise'
p2400
sg4
I8
sa(dp2401
g2
S'prepare'
p2402
sg4
I8
sa(dp2403
g2
S'pretty'
p2404
sg4
I8
sa(dp2405
g2
S'prisoner'
p2406
sg4
I8
sa(dp2407
g2
S'prisoners'
p2408
sg4
I8
sa(dp2409
g2
S'protection'
p2410
sg4
I8
sa(dp2411
g2
S'protests'
p2412
sg4
I8
sa(dp2413
g2
S'punish'
p2414
sg4
I8
sa(dp2415
g2
S'quote'
p2416
sg4
I8
sa(dp2417
g2
S'ramadan'
p2418
sg4
I8
sa(dp2419
g2
S're'
p2420
sg4
I8
sa(dp2421
g2
S'reasons'
p2422
sg4
I8
sa(dp2423
g2
S'recall'
p2424
sg4
I8
sa(dp2425
g2
S'recent'
p2426
sg4
I8
sa(dp2427
g2
S'recognize'
p2428
sg4
I8
sa(dp2429
g2
S'recovery'
p2430
sg4
I8
sa(dp2431
g2
S'regardless'
p2432
sg4
I8
sa(dp2433
g2
S'removed'
p2434
sg4
I8
sa(dp2435
g2
S'repent'
p2436
sg4
I8
sa(dp2437
g2
S'request'
p2438
sg4
I8
sa(dp2439
g2
S'reservedk'
p2440
sg4
I8
sa(dp2441
g2
S'revenge'
p2442
sg4
I8
sa(dp2443
g2
S'ridvan09479368'
p2444
sg4
I8
sa(dp2445
g2
S'saleh'
p2446
sg4
I8
sa(dp2447
g2
S'sayyidqutb1'
p2448
sg4
I8
sa(dp2449
g2
S'scared'
p2450
sg4
I8
sa(dp2451
g2
S'score'
p2452
sg4
I8
sa(dp2453
g2
S'servants'
p2454
sg4
I8
sa(dp2455
g2
S'shia'
p2456
sg4
I8
sa(dp2457
g2
S'shifaa'
p2458
sg4
I8
sa(dp2459
g2
S'shocking'
p2460
sg4
I8
sa(dp2461
g2
S'shot'
p2462
sg4
I8
sa(dp2463
g2
S'shura'
p2464
sg4
I8
sa(dp2465
g2
S'sign'
p2466
sg4
I8
sa(dp2467
g2
S'sin'
p2468
sg4
I8
sa(dp2469
g2
S'sincerely'
p2470
sg4
I8
sa(dp2471
g2
S'single'
p2472
sg4
I8
sa(dp2473
g2
S'sisboombahbah'
p2474
sg4
I8
sa(dp2475
g2
S'sitting'
p2476
sg4
I8
sa(dp2477
g2
S'social'
p2478
sg4
I8
sa(dp2479
g2
S'source'
p2480
sg4
I8
sa(dp2481
g2
S'standing'
p2482
sg4
I8
sa(dp2483
g2
S'started'
p2484
sg4
I8
sa(dp2485
g2
S'steadfast'
p2486
sg4
I8
sa(dp2487
g2
S'steps'
p2488
sg4
I8
sa(dp2489
g2
S'stood'
p2490
sg4
I8
sa(dp2491
g2
S'stopped'
p2492
sg4
I8
sa(dp2493
g2
S'strive'
p2494
sg4
I8
sa(dp2495
g2
S'subcontinent'
p2496
sg4
I8
sa(dp2497
g2
S'supporters'
p2498
sg4
I8
sa(dp2499
g2
S'supporting'
p2500
sg4
I8
sa(dp2501
g2
S'syrians'
p2502
sg4
I8
sa(dp2503
g2
S'takes'
p2504
sg4
I8
sa(dp2505
g2
S'taliban'
p2506
sg4
I8
sa(dp2507
g2
S'tanks'
p2508
sg4
I8
sa(dp2509
g2
S'tests'
p2510
sg4
I8
sa(dp2511
g2
S'theres'
p2512
sg4
I8
sa(dp2513
g2
S'tohaaqureshi'
p2514
sg4
I8
sa(dp2515
g2
S'tonight'
p2516
sg4
I8
sa(dp2517
g2
S'town'
p2518
sg4
I8
sa(dp2519
g2
S'translation'
p2520
sg4
I8
sa(dp2521
g2
S'truthful'
p2522
sg4
I8
sa(dp2523
g2
S'turned'
p2524
sg4
I8
sa(dp2525
g2
S'tweeted'
p2526
sg4
I8
sa(dp2527
g2
S'uae'
p2528
sg4
I8
sa(dp2529
g2
S'united'
p2530
sg4
I8
sa(dp2531
g2
S'using'
p2532
sg4
I8
sa(dp2533
g2
S'videos'
p2534
sg4
I8
sa(dp2535
g2
S'voice'
p2536
sg4
I8
sa(dp2537
g2
S'wala'
p2538
sg4
I8
sa(dp2539
g2
S'wants'
p2540
sg4
I8
sa(dp2541
g2
S'wasalam'
p2542
sg4
I8
sa(dp2543
g2
S'ways'
p2544
sg4
I8
sa(dp2545
g2
S'week'
p2546
sg4
I8
sa(dp2547
g2
S'weeks'
p2548
sg4
I8
sa(dp2549
g2
S'whole'
p2550
sg4
I8
sa(dp2551
g2
S'whose'
p2552
sg4
I8
sa(dp2553
g2
S'win'
p2554
sg4
I8
sa(dp2555
g2
S'wit'
p2556
sg4
I8
sa(dp2557
g2
S'within'
p2558
sg4
I8
sa(dp2559
g2
S'worker'
p2560
sg4
I8
sa(dp2561
g2
S'worse'
p2562
sg4
I8
sa(dp2563
g2
S'xarpiyetkurdi'
p2564
sg4
I8
sa(dp2565
g2
S'xinxaro111'
p2566
sg4
I8
sa(dp2567
g2
S'youve'
p2568
sg4
I8
sa(dp2569
g2
S'zawahiri'
p2570
sg4
I8
sa(dp2571
g2
S'zawahirri'
p2572
sg4
I8
sa(dp2573
g2
S'zinnura'
p2574
sg4
I8
sa(dp2575
g2
S'abandoned'
p2576
sg4
I6
sa(dp2577
g2
S'abdujanah'
p2578
sg4
I6
sa(dp2579
g2
S'abdulaziz'
p2580
sg4
I6
sa(dp2581
g2
S'abdulrahman'
p2582
sg4
I6
sa(dp2583
g2
S'abubekralb'
p2584
sg4
I6
sa(dp2585
g2
S'abudujanaisis'
p2586
sg4
I6
sa(dp2587
g2
S'abuhafsdz'
p2588
sg4
I6
sa(dp2589
g2
S'abukenan'
p2590
sg4
I6
sa(dp2591
g2
S'abuwukasyah'
p2592
sg4
I6
sa(dp2593
g2
S'accountability'
p2594
sg4
I6
sa(dp2595
g2
S'acted'
p2596
sg4
I6
sa(dp2597
g2
S'acting'
p2598
sg4
I6
sa(dp2599
g2
S'action'
p2600
sg4
I6
sa(dp2601
g2
S'actually'
p2602
sg4
I6
sa(dp2603
g2
S'adam'
p2604
sg4
I6
sa(dp2605
g2
S'affairs'
p2606
sg4
I6
sa(dp2607
g2
S'ajaltamimi'
p2608
sg4
I6
sa(dp2609
g2
S'ajr'
p2610
sg4
I6
sa(dp2611
g2
S'akhib'
p2612
sg4
I6
sa(dp2613
g2
S'ala'
p2614
sg4
I6
sa(dp2615
g2
S'alansarialjanab'
p2616
sg4
I6
sa(dp2617
g2
S'albritaanii'
p2618
sg4
I6
sa(dp2619
g2
S'alhamdulilah'
p2620
sg4
I6
sa(dp2621
g2
S'alislam'
p2622
sg4
I6
sa(dp2623
g2
S'allahulmustan'
p2624
sg4
I6
sa(dp2625
g2
S'allies'
p2626
sg4
I6
sa(dp2627
g2
S'alshabaab'
p2628
sg4
I6
sa(dp2629
g2
S'ameeen'
p2630
sg4
I6
sa(dp2631
g2
S'americans'
p2632
sg4
I6
sa(dp2633
g2
S'amount'
p2634
sg4
I6
sa(dp2635
g2
S'amreekiwitness'
p2636
sg4
I6
sa(dp2637
g2
S'arabic'
p2638
sg4
I6
sa(dp2639
g2
S'arrive'
p2640
sg4
I6
sa(dp2641
g2
S'arrogant'
p2642
sg4
I6
sa(dp2643
g2
S'asap'
p2644
sg4
I6
sa(dp2645
g2
S'attacking'
p2646
sg4
I6
sa(dp2647
g2
S'attaifah'
p2648
sg4
I6
sa(dp2649
g2
S'australia'
p2650
sg4
I6
sa(dp2651
g2
S'aware'
p2652
sg4
I6
sa(dp2653
g2
S'awlaki'
p2654
sg4
I6
sa(dp2655
g2
S'ayah'
p2656
sg4
I6
sa(dp2657
g2
S'b4'
p2658
sg4
I6
sa(dp2659
g2
S'bakri'
p2660
sg4
I6
sa(dp2661
g2
S'baseer'
p2662
sg4
I6
sa(dp2663
g2
S'batil'
p2664
sg4
I6
sa(dp2665
g2
S'bbcbreaking'
p2666
sg4
I6
sa(dp2667
g2
S'beginsmartin'
p2668
sg4
I6
sa(dp2669
g2
S'beheadings'
p2670
sg4
I6
sa(dp2671
g2
S'believing'
p2672
sg4
I6
sa(dp2673
g2
S'besieged'
p2674
sg4
I6
sa(dp2675
g2
S'betrayal'
p2676
sg4
I6
sa(dp2677
g2
S'beyond'
p2678
sg4
I6
sa(dp2679
g2
S'biggest'
p2680
sg4
I6
sa(dp2681
g2
S'bilaah'
p2682
sg4
I6
sa(dp2683
g2
S'blast'
p2684
sg4
I6
sa(dp2685
g2
S'bleed'
p2686
sg4
I6
sa(dp2687
g2
S'bleeds'
p2688
sg4
I6
sa(dp2689
g2
S'block'
p2690
sg4
I6
sa(dp2691
g2
S'bomb'
p2692
sg4
I6
sa(dp2693
g2
S'bomber'
p2694
sg4
I6
sa(dp2695
g2
S'boston'
p2696
sg4
I6
sa(dp2697
g2
S'boy'
p2698
sg4
I6
sa(dp2699
g2
S'btwn'
p2700
sg4
I6
sa(dp2701
g2
S'buff'
p2702
sg4
I6
sa(dp2703
g2
S'bukhari'
p2704
sg4
I6
sa(dp2705
g2
S'burden'
p2706
sg4
I6
sa(dp2707
g2
S'burial'
p2708
sg4
I6
sa(dp2709
g2
S'carry'
p2710
sg4
I6
sa(dp2711
g2
S'certainly'
p2712
sg4
I6
sa(dp2713
g2
S'cha'
p2714
sg4
I6
sa(dp2715
g2
S'channel'
p2716
sg4
I6
sa(dp2717
g2
S'close'
p2718
sg4
I6
sa(dp2719
g2
S'closed'
p2720
sg4
I6
sa(dp2721
g2
S'commit'
p2722
sg4
I6
sa(dp2723
g2
S'community'
p2724
sg4
I6
sa(dp2725
g2
S'compassion'
p2726
sg4
I6
sa(dp2727
g2
S'completely'
p2728
sg4
I6
sa(dp2729
g2
S'conclusions'
p2730
sg4
I6
sa(dp2731
g2
S'confidence'
p2732
sg4
I6
sa(dp2733
g2
S'confirmed'
p2734
sg4
I6
sa(dp2735
g2
S'confirms'
p2736
sg4
I6
sa(dp2737
g2
S'convenant'
p2738
sg4
I6
sa(dp2739
g2
S'convinced'
p2740
sg4
I6
sa(dp2741
g2
S'costs'
p2742
sg4
I6
sa(dp2743
g2
S'country'
p2744
sg4
I6
sa(dp2745
g2
S'couple'
p2746
sg4
I6
sa(dp2747
g2
S'court'
p2748
sg4
I6
sa(dp2749
g2
S'cousin'
p2750
sg4
I6
sa(dp2751
g2
S'cousins'
p2752
sg4
I6
sa(dp2753
g2
S'cowardice'
p2754
sg4
I6
sa(dp2755
g2
S'crew'
p2756
sg4
I6
sa(dp2757
g2
S'criticizing'
p2758
sg4
I6
sa(dp2759
g2
S'cubs'
p2760
sg4
I6
sa(dp2761
g2
S'curse'
p2762
sg4
I6
sa(dp2763
g2
S'dad'
p2764
sg4
I6
sa(dp2765
g2
S'damascus'
p2766
sg4
I6
sa(dp2767
g2
S'dare'
p2768
sg4
I6
sa(dp2769
g2
S'darul'
p2770
sg4
I6
sa(dp2771
g2
S'daughter'
p2772
sg4
I6
sa(dp2773
g2
S'ddnomade'
p2774
sg4
I6
sa(dp2775
g2
S'debating'
p2776
sg4
I6
sa(dp2777
g2
S'decide'
p2778
sg4
I6
sa(dp2779
g2
S'decided'
p2780
sg4
I6
sa(dp2781
g2
S'dedicated'
p2782
sg4
I6
sa(dp2783
g2
S'deeply'
p2784
sg4
I6
sa(dp2785
g2
S'definately'
p2786
sg4
I6
sa(dp2787
g2
S'denied'
p2788
sg4
I6
sa(dp2789
g2
S'descend'
p2790
sg4
I6
sa(dp2791
g2
S'desires'
p2792
sg4
I6
sa(dp2793
g2
S'details'
p2794
sg4
I6
sa(dp2795
g2
S'deviants'
p2796
sg4
I6
sa(dp2797
g2
S'devil'
p2798
sg4
I6
sa(dp2799
g2
S'devils'
p2800
sg4
I6
sa(dp2801
g2
S'dies'
p2802
sg4
I6
sa(dp2803
g2
S'disgusting'
p2804
sg4
I6
sa(dp2805
g2
S'docs'
p2806
sg4
I6
sa(dp2807
g2
S'doctor'
p2808
sg4
I6
sa(dp2809
g2
S'dream'
p2810
sg4
I6
sa(dp2811
g2
S'duaa'
p2812
sg4
I6
sa(dp2813
g2
S'dujana'
p2814
sg4
I6
sa(dp2815
g2
S'ease'
p2816
sg4
I6
sa(dp2817
g2
S'easily'
p2818
sg4
I6
sa(dp2819
g2
S'ended'
p2820
sg4
I6
sa(dp2821
g2
S'england'
p2822
sg4
I6
sa(dp2823
g2
S'entitled'
p2824
sg4
I6
sa(dp2825
g2
S'evidence'
p2826
sg4
I6
sa(dp2827
g2
S'exalted'
p2828
sg4
I6
sa(dp2829
g2
S'excuse'
p2830
sg4
I6
sa(dp2831
g2
S'experience'
p2832
sg4
I6
sa(dp2833
g2
S'extreme'
p2834
sg4
I6
sa(dp2835
g2
S'f'
p2836
sg4
I6
sa(dp2837
g2
S'fa'
p2838
sg4
I6
sa(dp2839
g2
S'fail'
p2840
sg4
I6
sa(dp2841
g2
S'fair'
p2842
sg4
I6
sa(dp2843
g2
S'fallen'
p2844
sg4
I6
sa(dp2845
g2
S'falsehood'
p2846
sg4
I6
sa(dp2847
g2
S'fans'
p2848
sg4
I6
sa(dp2849
g2
S'farooqi'
p2850
sg4
I6
sa(dp2851
g2
S'faroukmuslym'
p2852
sg4
I6
sa(dp2853
g2
S'fatih'
p2854
sg4
I6
sa(dp2855
g2
S'fatwa'
p2856
sg4
I6
sa(dp2857
g2
S'fears'
p2858
sg4
I6
sa(dp2859
g2
S'feelings'
p2860
sg4
I6
sa(dp2861
g2
S'fiqh'
p2862
sg4
I6
sa(dp2863
g2
S'fitan'
p2864
sg4
I6
sa(dp2865
g2
S'fix'
p2866
sg4
I6
sa(dp2867
g2
S'flag'
p2868
sg4
I6
sa(dp2869
g2
S'flee'
p2870
sg4
I6
sa(dp2871
g2
S'flies'
p2872
sg4
I6
sa(dp2873
g2
S'fo'
p2874
sg4
I6
sa(dp2875
g2
S'foe'
p2876
sg4
I6
sa(dp2877
g2
S'folk'
p2878
sg4
I6
sa(dp2879
g2
S'fool'
p2880
sg4
I6
sa(dp2881
g2
S'fooled'
p2882
sg4
I6
sa(dp2883
g2
S'foreign'
p2884
sg4
I6
sa(dp2885
g2
S'forgiven'
p2886
sg4
I6
sa(dp2887
g2
S'foul'
p2888
sg4
I6
sa(dp2889
g2
S'freefalasteen'
p2890
sg4
I6
sa(dp2891
g2
S'freepalestine'
p2892
sg4
I6
sa(dp2893
g2
S'french'
p2894
sg4
I6
sa(dp2895
g2
S'fronts'
p2896
sg4
I6
sa(dp2897
g2
S'fuqaha'
p2898
sg4
I6
sa(dp2899
g2
S'g3nn1e'
p2900
sg4
I6
sa(dp2901
g2
S'gang'
p2902
sg4
I6
sa(dp2903
g2
S'gaze'
p2904
sg4
I6
sa(dp2905
g2
S'gift'
p2906
sg4
I6
sa(dp2907
g2
S'glad'
p2908
sg4
I6
sa(dp2909
g2
S'gladly'
p2910
sg4
I6
sa(dp2911
g2
S'goal'
p2912
sg4
I6
sa(dp2913
g2
S'godane'
p2914
sg4
I6
sa(dp2915
g2
S'government'
p2916
sg4
I6
sa(dp2917
g2
S'grandmother'
p2918
sg4
I6
sa(dp2919
g2
S'greedy'
p2920
sg4
I6
sa(dp2921
g2
S'grew'
p2922
sg4
I6
sa(dp2923
g2
S'grow'
p2924
sg4
I6
sa(dp2925
g2
S'gt'
p2926
sg4
I6
sa(dp2927
g2
S'gtgt'
p2928
sg4
I6
sa(dp2929
g2
S'gtgtgt'
p2930
sg4
I6
sa(dp2931
g2
S'guantanamo'
p2932
sg4
I6
sa(dp2933
g2
S'guided'
p2934
sg4
I6
sa(dp2935
g2
S'gun'
p2936
sg4
I6
sa(dp2937
g2
S'hajj'
p2938
sg4
I6
sa(dp2939
g2
S'halaljilbabi'
p2940
sg4
I6
sa(dp2941
g2
S'happens'
p2942
sg4
I6
sa(dp2943
g2
S'harden'
p2944
sg4
I6
sa(dp2945
g2
S'harvest'
p2946
sg4
I6
sa(dp2947
g2
S'hates'
p2948
sg4
I6
sa(dp2949
g2
S'haya'
p2950
sg4
I6
sa(dp2951
g2
S'heading'
p2952
sg4
I6
sa(dp2953
g2
S'heal'
p2954
sg4
I6
sa(dp2955
g2
S'hearing'
p2956
sg4
I6
sa(dp2957
g2
S'heartless'
p2958
sg4
I6
sa(dp2959
g2
S'hedge76'
p2960
sg4
I6
sa(dp2961
g2
S'hereafter'
p2962
sg4
I6
sa(dp2963
g2
S'heres'
p2964
sg4
I6
sa(dp2965
g2
S'hidayah'
p2966
sg4
I6
sa(dp2967
g2
S'hizbi'
p2968
sg4
I6
sa(dp2969
g2
S'honored'
p2970
sg4
I6
sa(dp2971
g2
S'hospital'
p2972
sg4
I6
sa(dp2973
g2
S'house'
p2974
sg4
I6
sa(dp2975
g2
S'houthis'
p2976
sg4
I6
sa(dp2977
g2
S'huh'
p2978
sg4
I6
sa(dp2979
g2
S'human'
p2980
sg4
I6
sa(dp2981
g2
S'husband'
p2982
sg4
I6
sa(dp2983
g2
S'hypocrite'
p2984
sg4
I6
sa(dp2985
g2
S'ibnabdulsattar'
p2986
sg4
I6
sa(dp2987
g2
S'ibnufulaan1'
p2988
sg4
I6
sa(dp2989
g2
S'ignorant'
p2990
sg4
I6
sa(dp2991
g2
S'ikhwaan'
p2992
sg4
I6
sa(dp2993
g2
S'implemented'
p2994
sg4
I6
sa(dp2995
g2
S'infact'
p2996
sg4
I6
sa(dp2997
g2
S'injustice'
p2998
sg4
I6
sa(dp2999
g2
S'inside'
p3000
sg4
I6
sa(dp3001
g2
S'instead'
p3002
sg4
I6
sa(dp3003
g2
S'interpretation'
p3004
sg4
I6
sa(dp3005
g2
S'iran'
p3006
sg4
I6
sa(dp3007
g2
S'islaam'
p3008
sg4
I6
sa(dp3009
g2
S'iyaaki'
p3010
sg4
I6
sa(dp3011
g2
S'jabhatannusra'
p3012
sg4
I6
sa(dp3013
g2
S'jahil'
p3014
sg4
I6
sa(dp3015
g2
S'jihadis'
p3016
sg4
I6
sa(dp3017
g2
S'john'
p3018
sg4
I6
sa(dp3019
g2
S'joke'
p3020
sg4
I6
sa(dp3021
g2
S'k'
p3022
sg4
I6
sa(dp3023
g2
S'khair'
p3024
sg4
I6
sa(dp3025
g2
S'khalaf'
p3026
sg4
I6
sa(dp3027
g2
S'kickcoreera'
p3028
sg4
I6
sa(dp3029
g2
S'killings'
p3030
sg4
I6
sa(dp3031
g2
S'king'
p3032
sg4
I6
sa(dp3033
g2
S'kuffs'
p3034
sg4
I6
sa(dp3035
g2
S'kurdishgirl01'
p3036
sg4
I6
sa(dp3037
g2
S'laa'
p3038
sg4
I6
sa(dp3039
g2
S'lately'
p3040
sg4
I6
sa(dp3041
g2
S'later'
p3042
sg4
I6
sa(dp3043
g2
S'leadership'
p3044
sg4
I6
sa(dp3045
g2
S'least'
p3046
sg4
I6
sa(dp3047
g2
S'lebanon'
p3048
sg4
I6
sa(dp3049
g2
S'led'
p3050
sg4
I6
sa(dp3051
g2
S'lessons'
p3052
sg4
I6
sa(dp3053
g2
S'likes'
p3054
sg4
I6
sa(dp3055
g2
S'living4jihad'
p3056
sg4
I6
sa(dp3057
g2
S'longer'
p3058
sg4
I6
sa(dp3059
g2
S'lookin4aladdin'
p3060
sg4
I6
sa(dp3061
g2
S'looking'
p3062
sg4
I6
sa(dp3063
g2
S'lovely'
p3064
sg4
I6
sa(dp3065
g2
S'malahem'
p3066
sg4
I6
sa(dp3067
g2
S'maldivian'
p3068
sg4
I6
sa(dp3069
g2
S'mandhara24'
p3070
sg4
I6
sa(dp3071
g2
S'manhaj'
p3072
sg4
I6
sa(dp3073
g2
S'mannered'
p3074
sg4
I6
sa(dp3075
g2
S'mannwasalwah'
p3076
sg4
I6
sa(dp3077
g2
S'mansoorah'
p3078
sg4
I6
sa(dp3079
g2
S'martyed'
p3080
sg4
I6
sa(dp3081
g2
S'martyrs'
p3082
sg4
I6
sa(dp3083
g2
S'meant'
p3084
sg4
I6
sa(dp3085
g2
S'measure'
p3086
sg4
I6
sa(dp3087
g2
S'measured'
p3088
sg4
I6
sa(dp3089
g2
S'members'
p3090
sg4
I6
sa(dp3091
g2
S'messages'
p3092
sg4
I6
sa(dp3093
g2
S'messing'
p3094
sg4
I6
sa(dp3095
g2
S'mine'
p3096
sg4
I6
sa(dp3097
g2
S'misguidance'
p3098
sg4
I6
sa(dp3099
g2
S'misguided'
p3100
sg4
I6
sa(dp3101
g2
S'missed'
p3102
sg4
I6
sa(dp3103
g2
S'mocking'
p3104
sg4
I6
sa(dp3105
g2
S'mohammed'
p3106
sg4
I6
sa(dp3107
g2
S'month'
p3108
sg4
I6
sa(dp3109
g2
S'months'
p3110
sg4
I6
sa(dp3111
g2
S'mosul'
p3112
sg4
I6
sa(dp3113
g2
S'motives'
p3114
sg4
I6
sa(dp3115
g2
S'mozimmalh'
p3116
sg4
I6
sa(dp3117
g2
S'mrjaman'
p3118
sg4
I6
sa(dp3119
g2
S'mu'
p3120
sg4
I6
sa(dp3121
g2
S'mubarak'
p3122
sg4
I6
sa(dp3123
g2
S'muhajir'
p3124
sg4
I6
sa(dp3125
g2
S'mujaahid'
p3126
sg4
I6
sa(dp3127
g2
S'mujahid4life'
p3128
sg4
I6
sa(dp3129
g2
S'munir'
p3130
sg4
I6
sa(dp3131
g2
S'murder'
p3132
sg4
I6
sa(dp3133
g2
S'murtad'
p3134
sg4
I6
sa(dp3135
g2
S'murtadeen'
p3136
sg4
I6
sa(dp3137
g2
S'nafs'
p3138
sg4
I6
sa(dp3139
g2
S'naseeha'
p3140
sg4
I6
sa(dp3141
g2
S'nation'
p3142
sg4
I6
sa(dp3143
g2
S'nationalists'
p3144
sg4
I6
sa(dp3145
g2
S'nature'
p3146
sg4
I6
sa(dp3147
g2
S'net'
p3148
sg4
I6
sa(dp3149
g2
S'none'
p3150
sg4
I6
sa(dp3151
g2
S'noticed'
p3152
sg4
I6
sa(dp3153
g2
S'nuh'
p3154
sg4
I6
sa(dp3155
g2
S'number'
p3156
sg4
I6
sa(dp3157
g2
S'nusayris'
p3158
sg4
I6
sa(dp3159
g2
S'obamas'
p3160
sg4
I6
sa(dp3161
g2
S'obvious'
p3162
sg4
I6
sa(dp3163
g2
S'offcourse'
p3164
sg4
I6
sa(dp3165
g2
S'officialmohsin'
p3166
sg4
I6
sa(dp3167
g2
S'older'
p3168
sg4
I6
sa(dp3169
g2
S'oneverse'
p3170
sg4
I6
sa(dp3171
g2
S'online'
p3172
sg4
I6
sa(dp3173
g2
S'opened'
p3174
sg4
I6
sa(dp3175
g2
S'opinion'
p3176
sg4
I6
sa(dp3177
g2
S'outspokensister'
p3178
sg4
I6
sa(dp3179
g2
S'p'
p3180
sg4
I6
sa(dp3181
g2
S'pakistan'
p3182
sg4
I6
sa(dp3183
g2
S'palestineresists'
p3184
sg4
I6
sa(dp3185
g2
S'panadriam'
p3186
sg4
I6
sa(dp3187
g2
S'pass'
p3188
sg4
I6
sa(dp3189
g2
S'pay'
p3190
sg4
I6
sa(dp3191
g2
S'peaceful'
p3192
sg4
I6
sa(dp3193
g2
S'performed'
p3194
sg4
I6
sa(dp3195
g2
S'personally'
p3196
sg4
I6
sa(dp3197
g2
S'persons'
p3198
sg4
I6
sa(dp3199
g2
S'phoney'
p3200
sg4
I6
sa(dp3201
g2
S'photo'
p3202
sg4
I6
sa(dp3203
g2
S'pics'
p3204
sg4
I6
sa(dp3205
g2
S'pigs'
p3206
sg4
I6
sa(dp3207
g2
S'places'
p3208
sg4
I6
sa(dp3209
g2
S'plan'
p3210
sg4
I6
sa(dp3211
g2
S'played'
p3212
sg4
I6
sa(dp3213
g2
S'population'
p3214
sg4
I6
sa(dp3215
g2
S'posted'
p3216
sg4
I6
sa(dp3217
g2
S'praised'
p3218
sg4
I6
sa(dp3219
g2
S'prefer'
p3220
sg4
I6
sa(dp3221
g2
S'presents'
p3222
sg4
I6
sa(dp3223
g2
S'prevent'
p3224
sg4
I6
sa(dp3225
g2
S'prophets'
p3226
sg4
I6
sa(dp3227
g2
S'prophetssaid'
p3228
sg4
I6
sa(dp3229
g2
S'protector'
p3230
sg4
I6
sa(dp3231
g2
S'providing'
p3232
sg4
I6
sa(dp3233
g2
S'pure'
p3234
sg4
I6
sa(dp3235
g2
S'purify'
p3236
sg4
I6
sa(dp3237
g2
S'purpose'
p3238
sg4
I6
sa(dp3239
g2
S'quwatta'
p3240
sg4
I6
sa(dp3241
g2
S'reading'
p3242
sg4
I6
sa(dp3243
g2
S'ready'
p3244
sg4
I6
sa(dp3245
g2
S'rebel'
p3246
sg4
I6
sa(dp3247
g2
S'red'
p3248
sg4
I6
sa(dp3249
g2
S'regards'
p3250
sg4
I6
sa(dp3251
g2
S'remembers'
p3252
sg4
I6
sa(dp3253
g2
S'reminder'
p3254
sg4
I6
sa(dp3255
g2
S'remove'
p3256
sg4
I6
sa(dp3257
g2
S'repeat'
p3258
sg4
I6
sa(dp3259
g2
S'repents'
p3260
sg4
I6
sa(dp3261
g2
S'replace'
p3262
sg4
I6
sa(dp3263
g2
S'respond'
p3264
sg4
I6
sa(dp3265
g2
S'responsible'
p3266
sg4
I6
sa(dp3267
g2
S'righteous'
p3268
sg4
I6
sa(dp3269
g2
S'robin'
p3270
sg4
I6
sa(dp3271
g2
S'rubbish'
p3272
sg4
I6
sa(dp3273
g2
S'rule'
p3274
sg4
I6
sa(dp3275
g2
S's7bhijratain'
p3276
sg4
I6
sa(dp3277
g2
S'sacrificed'
p3278
sg4
I6
sa(dp3279
g2
S'saeed'
p3280
sg4
I6
sa(dp3281
g2
S'salam'
p3282
sg4
I6
sa(dp3283
g2
S'savages'
p3284
sg4
I6
sa(dp3285
g2
S'saved'
p3286
sg4
I6
sa(dp3287
g2
S'second'
p3288
sg4
I6
sa(dp3289
g2
S'seekingajr'
p3290
sg4
I6
sa(dp3291
g2
S'sending'
p3292
sg4
I6
sa(dp3293
g2
S'service'
p3294
sg4
I6
sa(dp3295
g2
S'shadow043'
p3296
sg4
I6
sa(dp3297
g2
S'shahaadah'
p3298
sg4
I6
sa(dp3299
g2
S'shahid'
p3300
sg4
I6
sa(dp3301
g2
S'sharia'
p3302
sg4
I6
sa(dp3303
g2
S'shaykhs'
p3304
sg4
I6
sa(dp3305
g2
S'shell'
p3306
sg4
I6
sa(dp3307
g2
S'silence'
p3308
sg4
I6
sa(dp3309
g2
S'simple'
p3310
sg4
I6
sa(dp3311
g2
S'sit'
p3312
sg4
I6
sa(dp3313
g2
S'sitthisoneout'
p3314
sg4
I6
sa(dp3315
g2
S'slave'
p3316
sg4
I6
sa(dp3317
g2
S'smell'
p3318
sg4
I6
sa(dp3319
g2
S'smiling'
p3320
sg4
I6
sa(dp3321
g2
S'sniper'
p3322
sg4
I6
sa(dp3323
g2
S'solders'
p3324
sg4
I6
sa(dp3325
g2
S'solution'
p3326
sg4
I6
sa(dp3327
g2
S'sonin'
p3328
sg4
I6
sa(dp3329
g2
S'spare'
p3330
sg4
I6
sa(dp3331
g2
S'speaks'
p3332
sg4
I6
sa(dp3333
g2
S'spell'
p3334
sg4
I6
sa(dp3335
g2
S'spend'
p3336
sg4
I6
sa(dp3337
g2
S'spokesman'
p3338
sg4
I6
sa(dp3339
g2
S'stands'
p3340
sg4
I6
sa(dp3341
g2
S'status'
p3342
sg4
I6
sa(dp3343
g2
S'straight'
p3344
sg4
I6
sa(dp3345
g2
S'streets'
p3346
sg4
I6
sa(dp3347
g2
S'strength'
p3348
sg4
I6
sa(dp3349
g2
S'subhanallah'
p3350
sg4
I6
sa(dp3351
g2
S'subuhanalaah'
p3352
sg4
I6
sa(dp3353
g2
S'subuhanalah'
p3354
sg4
I6
sa(dp3355
g2
S'supersaj786'
p3356
sg4
I6
sa(dp3357
g2
S'supporter'
p3358
sg4
I6
sa(dp3359
g2
S'surgery'
p3360
sg4
I6
sa(dp3361
g2
S'suspicion'
p3362
sg4
I6
sa(dp3363
g2
S'sweetness'
p3364
sg4
I6
sa(dp3365
g2
S'sydney'
p3366
sg4
I6
sa(dp3367
g2
S'ta'
p3368
sg4
I6
sa(dp3369
g2
S'taught'
p3370
sg4
I6
sa(dp3371
g2
S'teach'
p3372
sg4
I6
sa(dp3373
g2
S'telling'
p3374
sg4
I6
sa(dp3375
g2
S'thank'
p3376
sg4
I6
sa(dp3377
g2
S'thousands'
p3378
sg4
I6
sa(dp3379
g2
S'thru'
p3380
sg4
I6
sa(dp3381
g2
S'thus'
p3382
sg4
I6
sa(dp3383
g2
S'treat'
p3384
sg4
I6
sa(dp3385
g2
S'treated'
p3386
sg4
I6
sa(dp3387
g2
S'treatment'
p3388
sg4
I6
sa(dp3389
g2
S'trials'
p3390
sg4
I6
sa(dp3391
g2
S'trip'
p3392
sg4
I6
sa(dp3393
g2
S'tweeting'
p3394
sg4
I6
sa(dp3395
g2
S'twice'
p3396
sg4
I6
sa(dp3397
g2
S'type'
p3398
sg4
I6
sa(dp3399
g2
S'types'
p3400
sg4
I6
sa(dp3401
g2
S'ul'
p3402
sg4
I6
sa(dp3403
g2
S'ulema'
p3404
sg4
I6
sa(dp3405
g2
S'ulterior'
p3406
sg4
I6
sa(dp3407
g2
S'ulwan'
p3408
sg4
I6
sa(dp3409
g2
S'ummammar'
p3410
sg4
I6
sa(dp3411
g2
S'ummumar'
p3412
sg4
I6
sa(dp3413
g2
S'ummusmaan1'
p3414
sg4
I6
sa(dp3415
g2
S'uncle'
p3416
sg4
I6
sa(dp3417
g2
S'unfair'
p3418
sg4
I6
sa(dp3419
g2
S'unjust'
p3420
sg4
I6
sa(dp3421
g2
S'unto'
p3422
sg4
I6
sa(dp3423
g2
S'update'
p3424
sg4
I6
sa(dp3425
g2
S'uscoalition'
p3426
sg4
I6
sa(dp3427
g2
S'uses'
p3428
sg4
I6
sa(dp3429
g2
S'usled'
p3430
sg4
I6
sa(dp3431
g2
S'usually'
p3432
sg4
I6
sa(dp3433
g2
S'various'
p3434
sg4
I6
sa(dp3435
g2
S've'
p3436
sg4
I6
sa(dp3437
g2
S'victories'
p3438
sg4
I6
sa(dp3439
g2
S'wafeeka'
p3440
sg4
I6
sa(dp3441
g2
S'wakeel'
p3442
sg4
I6
sa(dp3443
g2
S'walhumdulillah'
p3444
sg4
I6
sa(dp3445
g2
S'walk'
p3446
sg4
I6
sa(dp3447
g2
S'watched'
p3448
sg4
I6
sa(dp3449
g2
S'weapon'
p3450
sg4
I6
sa(dp3451
g2
S'whether'
p3452
sg4
I6
sa(dp3453
g2
S'wicked'
p3454
sg4
I6
sa(dp3455
g2
S'wil'
p3456
sg4
I6
sa(dp3457
g2
S'wise'
p3458
sg4
I6
sa(dp3459
g2
S'witnessing'
p3460
sg4
I6
sa(dp3461
g2
S'wonderful'
p3462
sg4
I6
sa(dp3463
g2
S'worry'
p3464
sg4
I6
sa(dp3465
g2
S'wrath'
p3466
sg4
I6
sa(dp3467
g2
S'yaqub'
p3468
sg4
I6
sa(dp3469
g2
S'yesterday'
p3470
sg4
I6
sa(dp3471
g2
S'zaidbenjamin'
p3472
sg4
I6
sa(dp3473
g2
S'zone'
p3474
sg4
I6
sa(dp3475
g2
S'zubayr'
p3476
sg4
I6
sa(dp3477
g2
S'~'
p3478
sg4
I6
sa.