(dp0
Vwkoss
p1
(dp2
S'Trend'
p3
NsS'P Value'
p4
NsS'Pearson Correlation'
p5
S'Moderate positive relationship'
p6
sS'Pearson Correlation Statistic'
p7
cnumpy.core.multiarray
scalar
p8
(cnumpy
dtype
p9
(S'f8'
p10
I0
I1
tp11
Rp12
(I3
S'<'
p13
NNNI-1
I-1
I0
tp14
bS'B\x07\x96\xbe\xdeY\xd4?'
p15
tp16
Rp17
sS'Increasing or Decreasing Trend'
p18
S'N/A'
p19
ssVaheaney
p20
(dp21
g3
g8
(g9
(S'b1'
p22
I0
I1
tp23
Rp24
(I3
S'|'
p25
NNNI-1
I-1
I0
tp26
bS'\x01'
p27
tp28
Rp29
sg4
g8
(g12
S'\x00k\xba\x05\xd8\xf6\xd9?'
p30
tp31
Rp32
sg5
S'No or negligable relationship'
p33
sg7
g8
(g12
S'\xa2"\xf8\xb8iH\xae\xbf'
p34
tp35
Rp36
sg18
S'Decreasing'
p37
ssVuokeefe
p38
(dp39
g3
g29
sg4
g8
(g12
S'\xc0\x1d\xbb\x90\x1f\x02\xcd?'
p40
tp41
Rp42
sg5
g33
sg7
g8
(g12
S'\x8b\xa5`\xf5\xa8\x01\xa8\xbf'
p43
tp44
Rp45
sg18
g37
ssVddooley
p46
(dp47
g3
g8
(g24
S'\x00'
p48
tp49
Rp50
sg4
g8
(g12
S'`4\xea\x1f\xdeT\xe3?'
p51
tp52
Rp53
sg5
g33
sg7
g8
(g12
S'\x93E\xb0\xcd\x0e\xa3\xc4?'
p54
tp55
Rp56
sg18
g19
ssVmadams
p57
(dp58
g3
g29
sg4
g8
(g12
S'\x18xn|\rG\xc2?'
p59
tp60
Rp61
sg5
g33
sg7
g8
(g12
S'\xf1\xa0\xc7\xdcF#\x83\xbf'
p62
tp63
Rp64
sg18
S'Increasing'
p65
ssVbaufderhar
p66
(dp67
g3
g50
sg4
g8
(g12
S'\x0e6I\xea\x96\xd5\xe3?'
p68
tp69
Rp70
sg5
S'Strong positive relationship'
p71
sg7
g8
(g12
S'\xae\xc8\xfdIce\xdc?'
p72
tp73
Rp74
sg18
g19
ss.