(dp0
Vmadams
p1
(dp2
S'Trend'
p3
cnumpy.core.multiarray
scalar
p4
(cnumpy
dtype
p5
(S'b1'
p6
I0
I1
tp7
Rp8
(I3
S'|'
p9
NNNI-1
I-1
I0
tp10
bS'\x01'
p11
tp12
Rp13
sS'P Value'
p14
g4
(g5
(S'f8'
p15
I0
I1
tp16
Rp17
(I3
S'<'
p18
NNNI-1
I-1
I0
tp19
bS'\x18xn|\rG\xc2?'
p20
tp21
Rp22
sS'Pearson Correlation'
p23
S'No or negligable relationship'
p24
sS'Pearson Correlation Statistic'
p25
g4
(g17
S'\xf1\xa0\xc7\xdcF#\x83\xbf'
p26
tp27
Rp28
sS'Increasing or Decreasing Trend'
p29
S'Increasing'
p30
ssVbaufderhar
p31
(dp32
g3
g4
(g8
S'\x00'
p33
tp34
Rp35
sg14
g4
(g17
S'\x0e6I\xea\x96\xd5\xe3?'
p36
tp37
Rp38
sg23
S'Strong positive relationship'
p39
sg25
g4
(g17
S'\xae\xc8\xfdIce\xdc?'
p40
tp41
Rp42
sg29
S'N/A'
p43
ssVaheaney
p44
(dp45
g3
g13
sg14
g4
(g17
S'\x00k\xba\x05\xd8\xf6\xd9?'
p46
tp47
Rp48
sg23
g24
sg25
g4
(g17
S'\xa2"\xf8\xb8iH\xae\xbf'
p49
tp50
Rp51
sg29
S'Decreasing'
p52
ssVwkoss
p53
(dp54
g3
Nsg14
Nsg23
S'Moderate positive relationship'
p55
sg25
g4
(g17
S'B\x07\x96\xbe\xdeY\xd4?'
p56
tp57
Rp58
sg29
g43
ssVddooley
p59
(dp60
g3
g35
sg14
g4
(g17
S'`4\xea\x1f\xdeT\xe3?'
p61
tp62
Rp63
sg23
g24
sg25
g4
(g17
S'\x93E\xb0\xcd\x0e\xa3\xc4?'
p64
tp65
Rp66
sg29
g43
ss.